(lp0
(lp1
S'0002/0001.png'
p2
aS'0002/0005.png'
p3
aS'0002/0006.png'
p4
aS'0002/0007.png'
p5
aS'0002/0008.png'
p6
aS'0002/0009.png'
p7
aS'0002/0010.png'
p8
aS'0002/0011.png'
p9
aS'0002/0012.png'
p10
aS'0002/0013.png'
p11
aS'0002/0014.png'
p12
aS'0002/0015.png'
p13
aS'0002/0016.png'
p14
aS'0002/0017.png'
p15
aS'0002/0018.png'
p16
aS'0002/0059.png'
p17
aS'0002/0060.png'
p18
aS'0002/0075.png'
p19
aS'0002/0076.png'
p20
aS'0002/0079.png'
p21
aS'0002/0080.png'
p22
aS'0002/0081.png'
p23
aS'0002/0082.png'
p24
aS'0002/0083.png'
p25
aS'0002/0084.png'
p26
aS'0002/0085.png'
p27
aS'0002/0086.png'
p28
aS'0002/0087.png'
p29
aS'0002/0089.png'
p30
aS'0002/0090.png'
p31
aS'0002/0091.png'
p32
aS'0002/0092.png'
p33
aS'0002/0093.png'
p34
aS'0002/0094.png'
p35
aS'0002/0095.png'
p36
aS'0002/0097.png'
p37
aa(lp38
S'0004/20150415_165607.jpg'
p39
aS'0004/20150415_172559.jpg'
p40
aS'0004/20150415_175601.jpg'
p41
aS'0004/20150415_182608.jpg'
p42
aS'0004/20150415_185603.jpg'
p43
aS'0004/20150415_192614.jpg'
p44
aS'0004/20150415_195606.jpg'
p45
aS'0004/20150415_202606.jpg'
p46
aS'0004/20150415_205612.jpg'
p47
aS'0004/20150415_212609.jpg'
p48
aS'0004/20150415_215603.jpg'
p49
aS'0004/20150415_222555.jpg'
p50
aS'0004/20150415_225557.jpg'
p51
aS'0004/20150415_232609.jpg'
p52
aS'0004/20150415_235601.jpg'
p53
aS'0004/20150416_002601.jpg'
p54
aS'0004/20150416_005609.jpg'
p55
aS'0004/20150416_012559.jpg'
p56
aS'0004/20150416_015558.jpg'
p57
aS'0004/20150419_135604.jpg'
p58
aS'0004/20150419_142602.jpg'
p59
aS'0004/20150419_145559.jpg'
p60
aS'0004/20150419_152601.jpg'
p61
aS'0004/20150419_155557.jpg'
p62
aS'0004/20150419_162607.jpg'
p63
aS'0004/20150419_165601.jpg'
p64
aS'0004/20150419_172559.jpg'
p65
aS'0004/20150419_175558.jpg'
p66
aS'0004/20150419_182601.jpg'
p67
aS'0004/20150419_185608.jpg'
p68
aS'0004/20150419_195603.jpg'
p69
aS'0004/20150419_202609.jpg'
p70
aS'0004/20150419_205559.jpg'
p71
aS'0004/20150419_215609.jpg'
p72
aS'0004/20150419_222602.jpg'
p73
aS'0004/20150419_225558.jpg'
p74
aS'0004/20150419_232605.jpg'
p75
aS'0004/20150419_235603.jpg'
p76
aS'0004/20150420_002558.jpg'
p77
aS'0004/20150420_005608.jpg'
p78
aS'0004/20150420_012608.jpg'
p79
aS'0004/20150420_015604.jpg'
p80
aS'0004/20150420_022601.jpg'
p81
aS'0004/20150420_032621.jpg'
p82
aa(lp83
S'0007/20150402_064504.jpg'
p84
aS'0007/20150402_081500.jpg'
p85
aS'0007/20150402_084515.jpg'
p86
aS'0007/20150402_091509.jpg'
p87
aS'0007/20150402_094508.jpg'
p88
aS'0007/20150402_101509.jpg'
p89
aS'0007/20150402_104509.jpg'
p90
aS'0007/20150402_111517.jpg'
p91
aS'0007/20150402_114513.jpg'
p92
aS'0007/20150402_121506.jpg'
p93
aS'0007/20150402_124500.jpg'
p94
aS'0007/20150402_131510.jpg'
p95
aS'0007/20150402_134503.jpg'
p96
aS'0007/20150402_141504.jpg'
p97
aS'0007/20150402_144505.jpg'
p98
aS'0007/20150402_151513.jpg'
p99
aS'0007/20150402_154513.jpg'
p100
aS'0007/20150402_161458.jpg'
p101
aS'0007/20150402_164500.jpg'
p102
aS'0007/20150404_114508.jpg'
p103
aS'0007/20150404_121506.jpg'
p104
aS'0007/20150404_124506.jpg'
p105
aS'0007/20150404_131506.jpg'
p106
aS'0007/20150404_134523.jpg'
p107
aS'0007/20150404_141502.jpg'
p108
aS'0007/20150404_144519.jpg'
p109
aS'0007/20150404_151516.jpg'
p110
aS'0007/20150404_154518.jpg'
p111
aS'0007/20150404_161520.jpg'
p112
aS'0007/20150404_164502.jpg'
p113
aa(lp114
S'0009/0001.png'
p115
aS'0009/0011.png'
p116
aS'0009/0017.png'
p117
aS'0009/0018.png'
p118
aS'0009/0019.png'
p119
aS'0009/0020.png'
p120
aS'0009/0021.png'
p121
aS'0009/0022.png'
p122
aS'0009/0023.png'
p123
aS'0009/0024.png'
p124
aS'0009/0025.png'
p125
aS'0009/0026.png'
p126
aS'0009/0027.png'
p127
aS'0009/0028.png'
p128
aS'0009/0029.png'
p129
aS'0009/0030.png'
p130
aS'0009/0031.png'
p131
aS'0009/0032.png'
p132
aS'0009/0033.png'
p133
aS'0009/0034.png'
p134
aS'0009/0035.png'
p135
aS'0009/0036.png'
p136
aS'0009/0037.png'
p137
aS'0009/0038.png'
p138
aS'0009/0039.png'
p139
aS'0009/0040.png'
p140
aS'0009/0041.png'
p141
aS'0009/0042.png'
p142
aS'0009/0043.png'
p143
aS'0009/0044.png'
p144
aS'0009/0045.png'
p145
aS'0009/0046.png'
p146
aS'0009/0047.png'
p147
aa(lp148
S'0012/0001.png'
p149
aS'0012/0024.png'
p150
aS'0012/0025.png'
p151
aS'0012/0026.png'
p152
aS'0012/0027.png'
p153
aS'0012/0028.png'
p154
aS'0012/0029.png'
p155
aS'0012/0030.png'
p156
aS'0012/0031.png'
p157
aS'0012/0032.png'
p158
aS'0012/0033.png'
p159
aS'0012/0034.png'
p160
aS'0012/0035.png'
p161
aS'0012/0041.png'
p162
aa(lp163
S'0015/20150607_210726.jpg'
p164
aS'0015/20150607_213224.jpg'
p165
aS'0015/20150607_220243.jpg'
p166
aS'0015/20150607_223226.jpg'
p167
aS'0015/20150607_230222.jpg'
p168
aS'0015/20150608_233231.jpg'
p169
aS'0015/20150613_103223.jpg'
p170
aS'0015/20150613_110228.jpg'
p171
aS'0015/20150613_113229.jpg'
p172
aS'0015/20150613_120232.jpg'
p173
aS'0015/20150613_123234.jpg'
p174
aS'0015/20150613_130231.jpg'
p175
aS'0015/20150613_133232.jpg'
p176
aS'0015/20150613_140232.jpg'
p177
aS'0015/20150613_143230.jpg'
p178
aS'0015/20150613_150229.jpg'
p179
aS'0015/20150613_160230.jpg'
p180
aS'0015/20150613_163224.jpg'
p181
aS'0015/20150613_170231.jpg'
p182
aS'0015/20150613_173229.jpg'
p183
aS'0015/20150613_180225.jpg'
p184
aS'0015/20150613_183227.jpg'
p185
aS'0015/20150613_190236.jpg'
p186
aS'0015/20150613_193235.jpg'
p187
aS'0015/20150613_200228.jpg'
p188
aS'0015/20150613_203231.jpg'
p189
aS'0015/20150613_210227.jpg'
p190
aS'0015/20150613_213232.jpg'
p191
aS'0015/20150613_220256.jpg'
p192
aS'0015/20150613_223231.jpg'
p193
aS'0015/20150613_230228.jpg'
p194
aS'0015/20150613_233226.jpg'
p195
aS'0015/20150614_103223.jpg'
p196
aS'0015/20150614_110256.jpg'
p197
aS'0015/20150614_113311.jpg'
p198
aS'0015/20150614_120222.jpg'
p199
aS'0015/20150614_123231.jpg'
p200
aS'0015/20150614_130231.jpg'
p201
aS'0015/20150614_133224.jpg'
p202
aS'0015/20150614_140247.jpg'
p203
aS'0015/20150614_143221.jpg'
p204
aS'0015/20150614_150227.jpg'
p205
aS'0015/20150614_153233.jpg'
p206
aS'0015/20150614_163231.jpg'
p207
aS'0015/20150614_170231.jpg'
p208
aS'0015/20150614_173226.jpg'
p209
aS'0015/20150614_180238.jpg'
p210
aS'0015/20150614_183229.jpg'
p211
aS'0015/20150614_190226.jpg'
p212
aS'0015/20150614_200227.jpg'
p213
aS'0015/20150614_203226.jpg'
p214
aS'0015/20150614_210237.jpg'
p215
aS'0015/20150614_220228.jpg'
p216
aS'0015/20150614_223231.jpg'
p217
aS'0015/20150614_230225.jpg'
p218
aS'0015/20150617_103236.jpg'
p219
aS'0015/20150617_110304.jpg'
p220
aS'0015/20150617_113221.jpg'
p221
aS'0015/20150622_110230.jpg'
p222
aS'0015/20150622_113232.jpg'
p223
aS'0015/20150622_123227.jpg'
p224
aa(lp225
S'0016/0001.png'
p226
aS'0016/0002.png'
p227
aS'0016/0003.png'
p228
aS'0016/0004.png'
p229
aS'0016/0005.png'
p230
aS'0016/0006.png'
p231
aS'0016/0007.png'
p232
aS'0016/0008.png'
p233
aS'0016/0009.png'
p234
aS'0016/0010.png'
p235
aS'0016/0011.png'
p236
aS'0016/0012.png'
p237
aS'0016/0013.png'
p238
aS'0016/0014.png'
p239
aS'0016/0015.png'
p240
aS'0016/0016.png'
p241
aS'0016/0017.png'
p242
aS'0016/0018.png'
p243
aa(lp244
S'0018/0084.png'
p245
aS'0018/0098.png'
p246
aS'0018/0112.png'
p247
aS'0018/0126.png'
p248
aS'0018/0133.png'
p249
aS'0018/0147.png'
p250
aS'0018/0161.png'
p251
aS'0018/0175.png'
p252
aS'0018/0182.png'
p253
aS'0018/0189.png'
p254
aS'0018/0196.png'
p255
aS'0018/0203.png'
p256
aS'0018/0217.png'
p257
aS'0018/0224.png'
p258
aS'0018/0231.png'
p259
aS'0018/0238.png'
p260
aS'0018/0245.png'
p261
aS'0018/0252.png'
p262
aS'0018/0259.png'
p263
aS'0018/0266.png'
p264
aS'0018/0273.png'
p265
aS'0018/0280.png'
p266
aS'0018/0287.png'
p267
aS'0018/0294.png'
p268
aS'0018/0301.png'
p269
aS'0018/0308.png'
p270
aS'0018/0315.png'
p271
aS'0018/0322.png'
p272
aS'0018/0329.png'
p273
aS'0018/0336.png'
p274
aS'0018/0343.png'
p275
aS'0018/0350.png'
p276
aS'0018/0357.png'
p277
aS'0018/0364.png'
p278
aS'0018/0371.png'
p279
aS'0018/0378.png'
p280
aS'0018/0385.png'
p281
aS'0018/0392.png'
p282
aS'0018/0399.png'
p283
aS'0018/0406.png'
p284
aS'0018/0413.png'
p285
aS'0018/0420.png'
p286
aS'0018/0427.png'
p287
aS'0018/0434.png'
p288
aS'0018/0441.png'
p289
aS'0018/0448.png'
p290
aS'0018/0455.png'
p291
aS'0018/0462.png'
p292
aS'0018/0469.png'
p293
aS'0018/0476.png'
p294
aS'0018/0483.png'
p295
aS'0018/0490.png'
p296
aS'0018/0497.png'
p297
aS'0018/0518.png'
p298
aS'0018/0525.png'
p299
aS'0018/0532.png'
p300
aS'0018/0539.png'
p301
aS'0018/0546.png'
p302
aS'0018/0553.png'
p303
aa(lp304
S'0019/0001.png'
p305
aS'0019/0008.png'
p306
aS'0019/0015.png'
p307
aS'0019/0022.png'
p308
aS'0019/0029.png'
p309
aS'0019/0036.png'
p310
aS'0019/0043.png'
p311
aS'0019/0050.png'
p312
aS'0019/0057.png'
p313
aS'0019/0064.png'
p314
aS'0019/0071.png'
p315
aS'0019/0078.png'
p316
aS'0019/0085.png'
p317
aS'0019/0092.png'
p318
aS'0019/0099.png'
p319
aS'0019/0106.png'
p320
aS'0019/0113.png'
p321
aS'0019/0120.png'
p322
aS'0019/0127.png'
p323
aa(lp324
S'0020/0001.png'
p325
aS'0020/0003.png'
p326
aS'0020/0004.png'
p327
aS'0020/0007.png'
p328
aS'0020/0008.png'
p329
aS'0020/0010.png'
p330
aS'0020/0011.png'
p331
aS'0020/0012.png'
p332
aS'0020/0013.png'
p333
aS'0020/0014.png'
p334
aS'0020/0015.png'
p335
aS'0020/0017.png'
p336
aS'0020/0018.png'
p337
aS'0020/0019.png'
p338
aS'0020/0020.png'
p339
aS'0020/0021.png'
p340
aS'0020/0022.png'
p341
aS'0020/0024.png'
p342
aS'0020/0025.png'
p343
aS'0020/0026.png'
p344
aS'0020/0027.png'
p345
aS'0020/0028.png'
p346
aa(lp347
S'0023/0003.png'
p348
aS'0023/0006.png'
p349
aS'0023/0009.png'
p350
aS'0023/0012.png'
p351
aS'0023/0016.png'
p352
aS'0023/0019.png'
p353
aS'0023/0023.png'
p354
aS'0023/0026.png'
p355
aS'0023/0030.png'
p356
aS'0023/0033.png'
p357
aS'0023/0037.png'
p358
aS'0023/0040.png'
p359
aS'0023/0044.png'
p360
aS'0023/0047.png'
p361
aS'0023/0051.png'
p362
aS'0023/0054.png'
p363
aS'0023/0058.png'
p364
aS'0023/0061.png'
p365
aS'0023/0065.png'
p366
aS'0023/0068.png'
p367
aS'0023/0072.png'
p368
aS'0023/0075.png'
p369
aS'0023/0086.png'
p370
aS'0023/0156.png'
p371
aS'0023/0163.png'
p372
aS'0023/0170.png'
p373
aS'0023/0177.png'
p374
aS'0023/0184.png'
p375
aa(lp376
S'0024/0083.png'
p377
aS'0024/0086.png'
p378
aS'0024/0090.png'
p379
aS'0024/0093.png'
p380
aS'0024/0097.png'
p381
aS'0024/0100.png'
p382
aS'0024/0104.png'
p383
aS'0024/0107.png'
p384
aS'0024/0111.png'
p385
aS'0024/0114.png'
p386
aS'0024/0118.png'
p387
aS'0024/0121.png'
p388
aS'0024/0125.png'
p389
aS'0024/0128.png'
p390
aS'0024/0132.png'
p391
aS'0024/0135.png'
p392
aS'0024/0139.png'
p393
aS'0024/0142.png'
p394
aS'0024/0146.png'
p395
aS'0024/0149.png'
p396
aS'0024/0153.png'
p397
aS'0024/0156.png'
p398
aS'0024/0160.png'
p399
aS'0024/0163.png'
p400
aS'0024/0167.png'
p401
aa(lp402
S'0026/0007.png'
p403
aS'0026/0014.png'
p404
aS'0026/0021.png'
p405
aS'0026/0028.png'
p406
aS'0026/0035.png'
p407
aS'0026/0042.png'
p408
aS'0026/0049.png'
p409
aS'0026/0056.png'
p410
aS'0026/0063.png'
p411
aS'0026/0070.png'
p412
aS'0026/0077.png'
p413
aS'0026/0084.png'
p414
aS'0026/0091.png'
p415
aS'0026/0098.png'
p416
aS'0026/0105.png'
p417
aS'0026/0112.png'
p418
aS'0026/0119.png'
p419
aS'0026/0126.png'
p420
aS'0026/0133.png'
p421
aS'0026/0140.png'
p422
aS'0026/0147.png'
p423
aS'0026/0154.png'
p424
aS'0026/0161.png'
p425
aS'0026/0168.png'
p426
aS'0026/0336.png'
p427
aS'0026/0392.png'
p428
aS'0026/0413.png'
p429
aS'0026/0420.png'
p430
aS'0026/0427.png'
p431
aS'0026/0441.png'
p432
aS'0026/0448.png'
p433
aS'0026/0455.png'
p434
aS'0026/0462.png'
p435
aS'0026/0469.png'
p436
aS'0026/0476.png'
p437
aS'0026/0483.png'
p438
aS'0026/0490.png'
p439
aS'0026/0497.png'
p440
aS'0026/0504.png'
p441
aS'0026/0511.png'
p442
aS'0026/0518.png'
p443
aS'0026/0525.png'
p444
aS'0026/0532.png'
p445
aS'0026/0539.png'
p446
aS'0026/0546.png'
p447
aS'0026/0553.png'
p448
aS'0026/0560.png'
p449
aS'0026/0567.png'
p450
aS'0026/0574.png'
p451
aS'0026/0581.png'
p452
aa(lp453
S'0028/20150502_111629.jpg'
p454
aS'0028/20150502_121625.jpg'
p455
aS'0028/20150502_131621.jpg'
p456
aS'0028/20150502_141625.jpg'
p457
aS'0028/20150502_161630.jpg'
p458
aS'0028/20150502_171637.jpg'
p459
aS'0028/20150502_181633.jpg'
p460
aS'0028/20150510_041621.jpg'
p461
aS'0028/20150510_051629.jpg'
p462
aS'0028/20150510_061634.jpg'
p463
aS'0028/20150510_071632.jpg'
p464
aS'0028/20150510_091624.jpg'
p465
aS'0028/20150510_101629.jpg'
p466
aS'0028/20150510_111629.jpg'
p467
aS'0028/20150510_121635.jpg'
p468
aS'0028/20150510_131622.jpg'
p469
aS'0028/20150510_141627.jpg'
p470
aS'0028/20150510_151641.jpg'
p471
aS'0028/20150510_161630.jpg'
p472
aS'0028/20150510_191630.jpg'
p473
aS'0028/20150518_141626.jpg'
p474
aS'0028/20150518_151629.jpg'
p475
aS'0028/20150518_161631.jpg'
p476
aS'0028/20150521_041621.jpg'
p477
aS'0028/20150521_051625.jpg'
p478
aS'0028/20150521_061622.jpg'
p479
aS'0028/20150521_071628.jpg'
p480
aS'0028/20150521_081623.jpg'
p481
aS'0028/20150521_091626.jpg'
p482
aS'0028/20150521_094619.jpg'
p483
aS'0028/20150521_101630.jpg'
p484
aS'0028/20150521_111629.jpg'
p485
aS'0028/20150521_121630.jpg'
p486
aS'0028/20150521_131635.jpg'
p487
aS'0028/20150521_141622.jpg'
p488
aS'0028/20150521_151631.jpg'
p489
aS'0028/20150521_161633.jpg'
p490
aS'0028/20150521_171627.jpg'
p491
aa(lp492
S'0029/20140601_114638.jpg'
p493
aS'0029/20140601_121644.jpg'
p494
aS'0029/20140601_124648.jpg'
p495
aS'0029/20140601_131632.jpg'
p496
aS'0029/20140601_134642.jpg'
p497
aS'0029/20140601_141638.jpg'
p498
aS'0029/20140601_144631.jpg'
p499
aS'0029/20140601_151635.jpg'
p500
aS'0029/20140601_154643.jpg'
p501
aS'0029/20140601_161641.jpg'
p502
aS'0029/20140601_164637.jpg'
p503
aS'0029/20140601_171630.jpg'
p504
aS'0029/20140601_174637.jpg'
p505
aS'0029/20140601_181638.jpg'
p506
aS'0029/20140601_184636.jpg'
p507
aS'0029/20140601_191642.jpg'
p508
aS'0029/20140601_201629.jpg'
p509
aS'0029/20140601_204637.jpg'
p510
aS'0029/20140601_211632.jpg'
p511
aS'0029/20140601_214642.jpg'
p512
aS'0029/20140601_221631.jpg'
p513
aS'0029/20140601_224636.jpg'
p514
aS'0029/20140603_194640.jpg'
p515
aS'0029/20140604_134633.jpg'
p516
aS'0029/20140604_141642.jpg'
p517
aS'0029/20140604_144642.jpg'
p518
aS'0029/20140604_214637.jpg'
p519
aS'0029/20140604_224637.jpg'
p520
aS'0029/20140604_231637.jpg'
p521
aa(lp522
S'0030/20150502_061530.jpg'
p523
aS'0030/20150502_064532.jpg'
p524
aS'0030/20150502_071526.jpg'
p525
aS'0030/20150502_074530.jpg'
p526
aS'0030/20150502_081529.jpg'
p527
aS'0030/20150502_084530.jpg'
p528
aS'0030/20150502_091527.jpg'
p529
aS'0030/20150502_094535.jpg'
p530
aS'0030/20150502_104533.jpg'
p531
aS'0030/20150502_111537.jpg'
p532
aS'0030/20150502_114534.jpg'
p533
aS'0030/20150502_121527.jpg'
p534
aS'0030/20150502_124533.jpg'
p535
aS'0030/20150502_134526.jpg'
p536
aS'0030/20150509_061554.jpg'
p537
aS'0030/20150509_064525.jpg'
p538
aS'0030/20150509_114528.jpg'
p539
aS'0030/20150509_121541.jpg'
p540
aS'0030/20150509_124529.jpg'
p541
aS'0030/20150509_131536.jpg'
p542
aS'0030/20150509_134533.jpg'
p543
aS'0030/20150509_141534.jpg'
p544
aS'0030/20150509_144529.jpg'
p545
aS'0030/20150509_151525.jpg'
p546
aS'0030/20150509_161525.jpg'
p547
aS'0030/20150509_164523.jpg'
p548
aS'0030/20150509_174525.jpg'
p549
aS'0030/20150510_061540.jpg'
p550
aS'0030/20150510_064532.jpg'
p551
aS'0030/20150510_071532.jpg'
p552
aS'0030/20150510_074524.jpg'
p553
aS'0030/20150510_081536.jpg'
p554
aS'0030/20150510_084524.jpg'
p555
aS'0030/20150510_091525.jpg'
p556
aS'0030/20150510_101528.jpg'
p557
aS'0030/20150510_111524.jpg'
p558
aS'0030/20150510_121534.jpg'
p559
aS'0030/20150510_124522.jpg'
p560
aS'0030/20150510_131528.jpg'
p561
aS'0030/20150510_141523.jpg'
p562
aS'0030/20150510_144530.jpg'
p563
aS'0030/20150510_151533.jpg'
p564
aS'0030/20150510_161531.jpg'
p565
aS'0030/20150510_164530.jpg'
p566
aS'0030/20150510_174535.jpg'
p567
aS'0030/20150517_091530.jpg'
p568
aS'0030/20150517_111531.jpg'
p569
aS'0030/20150517_114528.jpg'
p570
aS'0030/20150517_124527.jpg'
p571
aS'0030/20150517_131534.jpg'
p572
aS'0030/20150517_144533.jpg'
p573
aS'0030/20150517_151524.jpg'
p574
aS'0030/20150517_154526.jpg'
p575
aS'0030/20150517_161531.jpg'
p576
aS'0030/20150517_164524.jpg'
p577
aS'0030/20150517_171528.jpg'
p578
aa(lp579
S'0031/20150601_034539.jpg'
p580
aS'0031/20150601_041535.jpg'
p581
aS'0031/20150601_044526.jpg'
p582
aS'0031/20150601_051540.jpg'
p583
aS'0031/20150601_054530.jpg'
p584
aS'0031/20150601_061524.jpg'
p585
aS'0031/20150601_064531.jpg'
p586
aS'0031/20150601_071535.jpg'
p587
aS'0031/20150601_074537.jpg'
p588
aS'0031/20150601_081532.jpg'
p589
aS'0031/20150601_084535.jpg'
p590
aS'0031/20150601_091530.jpg'
p591
aS'0031/20150601_094532.jpg'
p592
aS'0031/20150601_101531.jpg'
p593
aS'0031/20150601_104528.jpg'
p594
aS'0031/20150601_111540.jpg'
p595
aS'0031/20150601_114529.jpg'
p596
aS'0031/20150601_121544.jpg'
p597
aS'0031/20150601_124534.jpg'
p598
aS'0031/20150601_131522.jpg'
p599
aS'0031/20150601_134538.jpg'
p600
aS'0031/20150601_144527.jpg'
p601
aS'0031/20150601_151526.jpg'
p602
aS'0031/20150601_154540.jpg'
p603
aS'0031/20150601_161530.jpg'
p604
aS'0031/20150601_164529.jpg'
p605
aS'0031/20150601_171539.jpg'
p606
aS'0031/20150603_041538.jpg'
p607
aS'0031/20150603_044525.jpg'
p608
aS'0031/20150603_051525.jpg'
p609
aS'0031/20150603_054526.jpg'
p610
aS'0031/20150603_061543.jpg'
p611
aS'0031/20150603_064539.jpg'
p612
aS'0031/20150603_071541.jpg'
p613
aS'0031/20150603_081523.jpg'
p614
aS'0031/20150603_084539.jpg'
p615
aS'0031/20150603_091536.jpg'
p616
aS'0031/20150603_094529.jpg'
p617
aS'0031/20150603_101536.jpg'
p618
aS'0031/20150603_104536.jpg'
p619
aS'0031/20150603_111532.jpg'
p620
aS'0031/20150603_114531.jpg'
p621
aS'0031/20150603_124525.jpg'
p622
aS'0031/20150603_141538.jpg'
p623
aS'0031/20150603_144548.jpg'
p624
aS'0031/20150603_151554.jpg'
p625
aS'0031/20150603_154526.jpg'
p626
aS'0031/20150603_164533.jpg'
p627
aS'0031/20150603_174529.jpg'
p628
aS'0031/20150603_181540.jpg'
p629
aa(lp630
S'0033/008.png'
p631
aS'0033/010.png'
p632
aS'0033/012.png'
p633
aS'0033/018.png'
p634
aS'0033/019.png'
p635
aS'0033/020.png'
p636
aS'0033/021.png'
p637
aS'0033/024.png'
p638
aS'0033/041.png'
p639
aS'0033/045.png'
p640
aS'0033/048.png'
p641
aS'0033/049.png'
p642
aS'0033/052.png'
p643
aS'0033/054.png'
p644
aS'0033/063.png'
p645
aS'0033/064.png'
p646
aS'0033/066.png'
p647
aS'0033/068.png'
p648
aS'0033/073.png'
p649
aS'0033/074.png'
p650
aS'0033/076.png'
p651
aS'0033/077.png'
p652
aS'0033/079.png'
p653
aS'0033/081.png'
p654
aS'0033/082.png'
p655
aS'0033/084.png'
p656
aS'0033/086.png'
p657
aS'0033/092.png'
p658
aS'0033/095.png'
p659
aS'0033/096.png'
p660
aS'0033/097.png'
p661
aS'0033/098.png'
p662
aS'0033/099.png'
p663
aS'0033/100.png'
p664
aS'0033/101.png'
p665
aS'0033/102.png'
p666
aS'0033/103.png'
p667
aS'0033/104.png'
p668
aS'0033/105.png'
p669
aS'0033/106.png'
p670
aS'0033/107.png'
p671
aS'0033/108.png'
p672
aS'0033/109.png'
p673
aS'0033/110.png'
p674
aS'0033/111.png'
p675
aa(lp676
S'0034/001.tif'
p677
aS'0034/003.tif'
p678
aS'0034/004.tif'
p679
aS'0034/005.tif'
p680
aS'0034/007.tif'
p681
aS'0034/008.tif'
p682
aS'0034/010.tif'
p683
aS'0034/011.tif'
p684
aS'0034/012.tif'
p685
aS'0034/013.tif'
p686
aS'0034/016.tif'
p687
aS'0034/017.tif'
p688
aS'0034/020.tif'
p689
aS'0034/022.tif'
p690
aS'0034/025.tif'
p691
aS'0034/027.tif'
p692
aS'0034/030.tif'
p693
aS'0034/033.tif'
p694
aS'0034/035.tif'
p695
aS'0034/036.tif'
p696
aS'0034/041.tif'
p697
aS'0034/043.tif'
p698
aS'0034/056.tif'
p699
aS'0034/059.tif'
p700
aS'0034/062.tif'
p701
aS'0034/065.tif'
p702
aS'0034/072.tif'
p703
aS'0034/073.tif'
p704
aS'0034/076.tif'
p705
aS'0034/091.tif'
p706
aS'0034/092.tif'
p707
aS'0034/098.tif'
p708
aS'0034/099.tif'
p709
aS'0034/100.tif'
p710
aS'0034/102.tif'
p711
aS'0034/105.tif'
p712
aS'0034/109.tif'
p713
aS'0034/110.tif'
p714
aS'0034/112.tif'
p715
aS'0034/113.tif'
p716
aS'0034/116.tif'
p717
aS'0034/121.tif'
p718
aS'0034/123.tif'
p719
aa(lp720
S'0035/000.tif'
p721
aS'0035/001.tif'
p722
aS'0035/002.tif'
p723
aS'0035/003.tif'
p724
aS'0035/004.tif'
p725
aS'0035/005.tif'
p726
aS'0035/006.tif'
p727
aS'0035/007.tif'
p728
aS'0035/008.tif'
p729
aS'0035/009.tif'
p730
aS'0035/010.tif'
p731
aS'0035/011.tif'
p732
aS'0035/012.tif'
p733
aS'0035/013.tif'
p734
aS'0035/014.tif'
p735
aS'0035/015.tif'
p736
aS'0035/016.tif'
p737
aS'0035/017.tif'
p738
aS'0035/018.tif'
p739
aS'0035/019.tif'
p740
aS'0035/020.tif'
p741
aS'0035/021.tif'
p742
aS'0035/022.tif'
p743
aS'0035/023.tif'
p744
aS'0035/024.tif'
p745
aS'0035/025.tif'
p746
aS'0035/026.tif'
p747
aS'0035/027.tif'
p748
aS'0035/028.tif'
p749
aS'0035/029.tif'
p750
aS'0035/030.tif'
p751
aS'0035/031.tif'
p752
aa(lp753
S'0036/000.png'
p754
aS'0036/001.png'
p755
aS'0036/002.png'
p756
aS'0036/003.png'
p757
aS'0036/005.png'
p758
aS'0036/006.png'
p759
aS'0036/007.png'
p760
aS'0036/010.png'
p761
aS'0036/012.png'
p762
aS'0036/015.png'
p763
aS'0036/016.png'
p764
aS'0036/022.png'
p765
aS'0036/026.png'
p766
aS'0036/028.png'
p767
aS'0036/029.png'
p768
aS'0036/030.png'
p769
aS'0036/031.png'
p770
aS'0036/032.png'
p771
aS'0036/033.png'
p772
aS'0036/034.png'
p773
aS'0036/036.png'
p774
aS'0036/037.png'
p775
aS'0036/038.png'
p776
aS'0036/042.png'
p777
aS'0036/043.png'
p778
aS'0036/044.png'
p779
aS'0036/045.png'
p780
aS'0036/046.png'
p781
aS'0036/047.png'
p782
aS'0036/048.png'
p783
aS'0036/049.png'
p784
aS'0036/050.png'
p785
aS'0036/058.png'
p786
aS'0036/059.png'
p787
aS'0036/060.png'
p788
aS'0036/062.png'
p789
aS'0036/080.png'
p790
aS'0036/081.png'
p791
aS'0036/082.png'
p792
aa(lp793
S'0046/0381.png'
p794
aS'0046/0391.png'
p795
aS'0046/0401.png'
p796
aS'0046/0411.png'
p797
aS'0046/0421.png'
p798
aS'0046/0431.png'
p799
aS'0046/0441.png'
p800
aS'0046/0451.png'
p801
aS'0046/0461.png'
p802
aS'0046/0471.png'
p803
aS'0046/0481.png'
p804
aS'0046/0491.png'
p805
aS'0046/0501.png'
p806
aS'0046/0511.png'
p807
aS'0046/0521.png'
p808
aS'0046/0531.png'
p809
aS'0046/0548.png'
p810
aS'0046/0551.png'
p811
aS'0046/0561.png'
p812
aS'0046/0571.png'
p813
aS'0046/0581.png'
p814
aS'0046/0591.png'
p815
aS'0046/0601.png'
p816
aS'0046/0611.png'
p817
aS'0046/0621.png'
p818
aS'0046/0631.png'
p819
aS'0046/0641.png'
p820
aS'0046/0651.png'
p821
aS'0046/0661.png'
p822
aS'0046/0671.png'
p823
aS'0046/0681.png'
p824
aS'0046/0691.png'
p825
aS'0046/0701.png'
p826
aS'0046/0711.png'
p827
aS'0046/0721.png'
p828
aS'0046/0731.png'
p829
aS'0046/0741.png'
p830
aS'0046/0751.png'
p831
aS'0046/0761.png'
p832
aS'0046/0771.png'
p833
aS'0046/0781.png'
p834
aS'0046/0791.png'
p835
aS'0046/0801.png'
p836
aS'0046/0811.png'
p837
aS'0046/0821.png'
p838
aS'0046/0831.png'
p839
aS'0046/0841.png'
p840
aS'0046/0851.png'
p841
aS'0046/0861.png'
p842
aS'0046/0871.png'
p843
aS'0046/0881.png'
p844
aS'0046/0891.png'
p845
aS'0046/0901.png'
p846
aS'0046/0911.png'
p847
aa(lp848
S'0047/0001.png'
p849
aS'0047/0002.png'
p850
aS'0047/0003.png'
p851
aS'0047/0004.png'
p852
aS'0047/0005.png'
p853
aS'0047/0007.png'
p854
aS'0047/0008.png'
p855
aS'0047/0009.png'
p856
aS'0047/0010.png'
p857
aS'0047/0011.png'
p858
aS'0047/0012.png'
p859
aS'0047/0013.png'
p860
aS'0047/0014.png'
p861
aS'0047/0015.png'
p862
aS'0047/0016.png'
p863
aS'0047/0017.png'
p864
aS'0047/0018.png'
p865
aS'0047/0019.png'
p866
aS'0047/0020.png'
p867
aS'0047/0021.png'
p868
aS'0047/0022.png'
p869
aS'0047/0023.png'
p870
aS'0047/0024.png'
p871
aS'0047/0025.png'
p872
aS'0047/0026.png'
p873
aS'0047/0027.png'
p874
aS'0047/0028.png'
p875
aS'0047/0029.png'
p876
aS'0047/0030.png'
p877
aS'0047/0031.png'
p878
aS'0047/0032.png'
p879
aS'0047/0033.png'
p880
aS'0047/0034.png'
p881
aS'0047/0035.png'
p882
aS'0047/0036.png'
p883
aS'0047/0037.png'
p884
aS'0047/0038.png'
p885
aS'0047/0039.png'
p886
aS'0047/0041.png'
p887
aS'0047/0042.png'
p888
aa(lp889
S'0051/0001.png'
p890
aS'0051/0002.png'
p891
aS'0051/0003.png'
p892
aS'0051/0004.png'
p893
aS'0051/0005.png'
p894
aS'0051/0006.png'
p895
aS'0051/0007.png'
p896
aS'0051/0008.png'
p897
aS'0051/0009.png'
p898
aS'0051/0010.png'
p899
aS'0051/0011.png'
p900
aS'0051/0012.png'
p901
aS'0051/0013.png'
p902
aS'0051/0014.png'
p903
aS'0051/0015.png'
p904
aS'0051/0016.png'
p905
aS'0051/0018.png'
p906
aS'0051/0020.png'
p907
aS'0051/0021.png'
p908
aS'0051/0022.png'
p909
aS'0051/0023.png'
p910
aS'0051/0024.png'
p911
aa(lp912
S'0052/0001.png'
p913
aS'0052/0004.png'
p914
aS'0052/0007.png'
p915
aS'0052/0011.png'
p916
aS'0052/0014.png'
p917
aS'0052/0017.png'
p918
aS'0052/0021.png'
p919
aS'0052/0024.png'
p920
aS'0052/0027.png'
p921
aS'0052/0031.png'
p922
aS'0052/0034.png'
p923
aS'0052/0037.png'
p924
aS'0052/0041.png'
p925
aS'0052/0044.png'
p926
aS'0052/0047.png'
p927
aS'0052/0051.png'
p928
aS'0052/0054.png'
p929
aS'0052/0057.png'
p930
aS'0052/0061.png'
p931
aS'0052/0064.png'
p932
aS'0052/0067.png'
p933
aS'0052/0071.png'
p934
aS'0052/0074.png'
p935
aS'0052/0077.png'
p936
aS'0052/0081.png'
p937
aS'0052/0084.png'
p938
aS'0052/0087.png'
p939
aS'0052/0091.png'
p940
aS'0052/0094.png'
p941
aS'0052/0097.png'
p942
aS'0052/0101.png'
p943
aS'0052/0104.png'
p944
aS'0052/0114.png'
p945
aS'0052/0117.png'
p946
aS'0052/0121.png'
p947
aS'0052/0124.png'
p948
aa(lp949
S'0053/0004.png'
p950
aS'0053/0007.png'
p951
aS'0053/0011.png'
p952
aS'0053/0014.png'
p953
aS'0053/0017.png'
p954
aS'0053/0021.png'
p955
aS'0053/0024.png'
p956
aS'0053/0027.png'
p957
aS'0053/0031.png'
p958
aS'0053/0034.png'
p959
aS'0053/0037.png'
p960
aS'0053/0041.png'
p961
aS'0053/0044.png'
p962
aS'0053/0047.png'
p963
aS'0053/0051.png'
p964
aS'0053/0054.png'
p965
aS'0053/0057.png'
p966
aS'0053/0061.png'
p967
aS'0053/0064.png'
p968
aS'0053/0067.png'
p969
aS'0053/0071.png'
p970
aS'0053/0074.png'
p971
aS'0053/0077.png'
p972
aS'0053/0081.png'
p973
aS'0053/0084.png'
p974
aS'0053/0087.png'
p975
aS'0053/0091.png'
p976
aS'0053/0094.png'
p977
aS'0053/0097.png'
p978
aS'0053/0101.png'
p979
aS'0053/0104.png'
p980
aS'0053/0107.png'
p981
aS'0053/0111.png'
p982
aS'0053/0114.png'
p983
aS'0053/0117.png'
p984
aS'0053/0121.png'
p985
aS'0053/0124.png'
p986
aa(lp987
S'0054/0011.png'
p988
aS'0054/0021.png'
p989
aS'0054/0031.png'
p990
aS'0054/0034.png'
p991
aS'0054/0037.png'
p992
aS'0054/0051.png'
p993
aS'0054/0054.png'
p994
aS'0054/0057.png'
p995
aS'0054/0061.png'
p996
aS'0054/0067.png'
p997
aS'0054/0071.png'
p998
aS'0054/0077.png'
p999
aS'0054/0081.png'
p1000
aa(lp1001
S'0055/0009.png'
p1002
aS'0055/0010.png'
p1003
aS'0055/0011.png'
p1004
aS'0055/0012.png'
p1005
aS'0055/0013.png'
p1006
aS'0055/0014.png'
p1007
aS'0055/0015.png'
p1008
aS'0055/0016.png'
p1009
aS'0055/0017.png'
p1010
aS'0055/0018.png'
p1011
aS'0055/0019.png'
p1012
aS'0055/0020.png'
p1013
aS'0055/0021.png'
p1014
aS'0055/0022.png'
p1015
aS'0055/0023.png'
p1016
aS'0055/0024.png'
p1017
aS'0055/0025.png'
p1018
aS'0055/0026.png'
p1019
aS'0055/0027.png'
p1020
aS'0055/0028.png'
p1021
aS'0055/0029.png'
p1022
aS'0055/0030.png'
p1023
aS'0055/0031.png'
p1024
aS'0055/0032.png'
p1025
aS'0055/0033.png'
p1026
aS'0055/0034.png'
p1027
aS'0055/0035.png'
p1028
aS'0055/0036.png'
p1029
aS'0055/0037.png'
p1030
aS'0055/0038.png'
p1031
aS'0055/0039.png'
p1032
aS'0055/0040.png'
p1033
aS'0055/0041.png'
p1034
aS'0055/0042.png'
p1035
aS'0055/0043.png'
p1036
aS'0055/0044.png'
p1037
aS'0055/0045.png'
p1038
aS'0055/0046.png'
p1039
aS'0055/0047.png'
p1040
aS'0055/0048.png'
p1041
aS'0055/0049.png'
p1042
aS'0055/0050.png'
p1043
aS'0055/0051.png'
p1044
aS'0055/0052.png'
p1045
aS'0055/0053.png'
p1046
aS'0055/0054.png'
p1047
aa(lp1048
S'0059/0001.png'
p1049
aS'0059/0003.png'
p1050
aS'0059/0006.png'
p1051
aS'0059/0011.png'
p1052
aS'0059/0013.png'
p1053
aS'0059/0016.png'
p1054
aS'0059/0021.png'
p1055
aS'0059/0023.png'
p1056
aS'0059/0026.png'
p1057
aS'0059/0031.png'
p1058
aS'0059/0033.png'
p1059
aS'0059/0036.png'
p1060
aS'0059/0041.png'
p1061
aS'0059/0043.png'
p1062
aS'0059/0046.png'
p1063
aS'0059/0051.png'
p1064
aS'0059/0053.png'
p1065
aS'0059/0056.png'
p1066
aS'0059/0061.png'
p1067
aS'0059/0063.png'
p1068
aS'0059/0066.png'
p1069
aS'0059/0071.png'
p1070
aS'0059/0076.png'
p1071
aS'0059/0081.png'
p1072
aS'0059/0086.png'
p1073
aS'0059/0091.png'
p1074
aS'0059/0096.png'
p1075
aS'0059/0101.png'
p1076
aS'0059/0106.png'
p1077
aS'0059/0111.png'
p1078
aa(lp1079
S'0060/0007.png'
p1080
aS'0060/0011.png'
p1081
aS'0060/0017.png'
p1082
aS'0060/0021.png'
p1083
aS'0060/0027.png'
p1084
aS'0060/0031.png'
p1085
aS'0060/0037.png'
p1086
aS'0060/0041.png'
p1087
aS'0060/0047.png'
p1088
aS'0060/0051.png'
p1089
aS'0060/0057.png'
p1090
aS'0060/0061.png'
p1091
aS'0060/0067.png'
p1092
aS'0060/0071.png'
p1093
aS'0060/0077.png'
p1094
aS'0060/0081.png'
p1095
aS'0060/0087.png'
p1096
aS'0060/0091.png'
p1097
aS'0060/0097.png'
p1098
aS'0060/0101.png'
p1099
aS'0060/0107.png'
p1100
aS'0060/0111.png'
p1101
aS'0060/0117.png'
p1102
aS'0060/0121.png'
p1103
aS'0060/0127.png'
p1104
aS'0060/0131.png'
p1105
aS'0060/0137.png'
p1106
aS'0060/0141.png'
p1107
aS'0060/0147.png'
p1108
aS'0060/0151.png'
p1109
aS'0060/0157.png'
p1110
aS'0060/0161.png'
p1111
aS'0060/0167.png'
p1112
aS'0060/0171.png'
p1113
aS'0060/0177.png'
p1114
aS'0060/0181.png'
p1115
aS'0060/0187.png'
p1116
aS'0060/0191.png'
p1117
aS'0060/0197.png'
p1118
aS'0060/0201.png'
p1119
aS'0060/0207.png'
p1120
aS'0060/0211.png'
p1121
aS'0060/0217.png'
p1122
aa(lp1123
S'0078/20150401_050432.jpg'
p1124
aS'0078/20150401_050933.jpg'
p1125
aS'0078/20150401_051433.jpg'
p1126
aS'0078/20150401_051938.jpg'
p1127
aS'0078/20150401_052431.jpg'
p1128
aS'0078/20150401_052941.jpg'
p1129
aS'0078/20150401_053430.jpg'
p1130
aS'0078/20150401_053930.jpg'
p1131
aS'0078/20150401_054435.jpg'
p1132
aS'0078/20150401_054939.jpg'
p1133
aS'0078/20150401_055432.jpg'
p1134
aS'0078/20150401_055932.jpg'
p1135
aS'0078/20150401_060434.jpg'
p1136
aS'0078/20150401_060942.jpg'
p1137
aS'0078/20150401_061437.jpg'
p1138
aS'0078/20150401_061935.jpg'
p1139
aS'0078/20150401_062439.jpg'
p1140
aS'0078/20150401_062938.jpg'
p1141
aS'0078/20150401_063427.jpg'
p1142
aS'0078/20150401_063933.jpg'
p1143
aS'0078/20150401_064433.jpg'
p1144
aS'0078/20150401_064949.jpg'
p1145
aS'0078/20150401_065437.jpg'
p1146
aS'0078/20150401_065926.jpg'
p1147
aS'0078/20150401_070429.jpg'
p1148
aS'0078/20150401_070940.jpg'
p1149
aS'0078/20150401_071454.jpg'
p1150
aS'0078/20150401_071937.jpg'
p1151
aS'0078/20150401_072427.jpg'
p1152
aS'0078/20150401_073439.jpg'
p1153
aS'0078/20150401_074440.jpg'
p1154
aS'0078/20150401_074928.jpg'
p1155
aS'0078/20150401_075430.jpg'
p1156
aS'0078/20150401_075945.jpg'
p1157
aS'0078/20150401_080430.jpg'
p1158
aS'0078/20150401_080930.jpg'
p1159
aS'0078/20150401_081444.jpg'
p1160
aS'0078/20150401_081928.jpg'
p1161
aS'0078/20150401_082438.jpg'
p1162
aS'0078/20150401_083437.jpg'
p1163
aS'0078/20150401_083935.jpg'
p1164
aS'0078/20150401_084438.jpg'
p1165
aS'0078/20150401_084934.jpg'
p1166
aS'0078/20150401_085430.jpg'
p1167
aS'0078/20150401_085934.jpg'
p1168
aS'0078/20150401_090437.jpg'
p1169
aS'0078/20150401_090928.jpg'
p1170
aS'0078/20150401_091429.jpg'
p1171
aS'0078/20150401_091935.jpg'
p1172
aS'0078/20150401_092437.jpg'
p1173
aS'0078/20150401_092932.jpg'
p1174
aS'0078/20150401_093446.jpg'
p1175
aS'0078/20150401_093950.jpg'
p1176
aS'0078/20150401_094440.jpg'
p1177
aS'0078/20150401_094936.jpg'
p1178
aS'0078/20150401_095428.jpg'
p1179
aS'0078/20150401_095935.jpg'
p1180
aa(lp1181
S'0083/0001.png'
p1182
aS'0083/0002.png'
p1183
aS'0083/0003.png'
p1184
aS'0083/0004.png'
p1185
aS'0083/0005.png'
p1186
aS'0083/0006.png'
p1187
aS'0083/0007.png'
p1188
aS'0083/0008.png'
p1189
aS'0083/0009.png'
p1190
aS'0083/0010.png'
p1191
aS'0083/0011.png'
p1192
aS'0083/0012.png'
p1193
aS'0083/0013.png'
p1194
aS'0083/0014.png'
p1195
aS'0083/0015.png'
p1196
aS'0083/0016.png'
p1197
aS'0083/0017.png'
p1198
aS'0083/0018.png'
p1199
aS'0083/0019.png'
p1200
aS'0083/0020.png'
p1201
aS'0083/0021.png'
p1202
aS'0083/0022.png'
p1203
aS'0083/0023.png'
p1204
aS'0083/0024.png'
p1205
aS'0083/0025.png'
p1206
aS'0083/0026.png'
p1207
aS'0083/0027.png'
p1208
aS'0083/0028.png'
p1209
aS'0083/0029.png'
p1210
aS'0083/0030.png'
p1211
aS'0083/0031.png'
p1212
aS'0083/0032.png'
p1213
aS'0083/0033.png'
p1214
aS'0083/0034.png'
p1215
aS'0083/0035.png'
p1216
aS'0083/0036.png'
p1217
aS'0083/0037.png'
p1218
aS'0083/0038.png'
p1219
aS'0083/0039.png'
p1220
aS'0083/0040.png'
p1221
aS'0083/0041.png'
p1222
aa(lp1223
S'0084/0024.png'
p1224
aS'0084/0025.png'
p1225
aS'0084/0026.png'
p1226
aS'0084/0027.png'
p1227
aS'0084/0028.png'
p1228
aS'0084/0029.png'
p1229
aS'0084/0030.png'
p1230
aS'0084/0031.png'
p1231
aS'0084/0032.png'
p1232
aS'0084/0033.png'
p1233
aS'0084/0034.png'
p1234
aS'0084/0035.png'
p1235
aS'0084/0036.png'
p1236
aS'0084/0037.png'
p1237
aS'0084/0038.png'
p1238
aS'0084/0039.png'
p1239
aS'0084/0040.png'
p1240
aS'0084/0041.png'
p1241
aS'0084/0042.png'
p1242
aS'0084/0043.png'
p1243
aS'0084/0044.png'
p1244
aS'0084/0045.png'
p1245
aS'0084/0046.png'
p1246
aS'0084/0047.png'
p1247
aS'0084/0048.png'
p1248
aS'0084/0049.png'
p1249
aS'0084/0050.png'
p1250
aS'0084/0051.png'
p1251
aS'0084/0052.png'
p1252
aS'0084/0053.png'
p1253
aS'0084/0054.png'
p1254
aS'0084/0055.png'
p1255
aS'0084/0056.png'
p1256
aS'0084/0057.png'
p1257
aS'0084/0058.png'
p1258
aS'0084/0059.png'
p1259
aS'0084/0060.png'
p1260
aS'0084/0061.png'
p1261
aS'0084/0062.png'
p1262
aS'0084/0063.png'
p1263
aS'0084/0064.png'
p1264
aS'0084/0065.png'
p1265
aS'0084/0066.png'
p1266
aS'0084/0067.png'
p1267
aS'0084/0068.png'
p1268
aS'0084/0069.png'
p1269
aS'0084/0070.png'
p1270
aS'0084/0071.png'
p1271
aS'0084/0072.png'
p1272
aS'0084/0073.png'
p1273
aS'0084/0074.png'
p1274
aS'0084/0075.png'
p1275
aS'0084/0076.png'
p1276
aS'0084/0077.png'
p1277
aS'0084/0078.png'
p1278
aS'0084/0079.png'
p1279
aS'0084/0080.png'
p1280
aS'0084/0081.png'
p1281
aS'0084/0082.png'
p1282
aS'0084/0083.png'
p1283
aa(lp1284
S'0085/0001.png'
p1285
aS'0085/0006.png'
p1286
aS'0085/0011.png'
p1287
aS'0085/0016.png'
p1288
aS'0085/0021.png'
p1289
aS'0085/0026.png'
p1290
aS'0085/0031.png'
p1291
aS'0085/0036.png'
p1292
aS'0085/0042.png'
p1293
aS'0085/0046.png'
p1294
aS'0085/0051.png'
p1295
aS'0085/0056.png'
p1296
aS'0085/0061.png'
p1297
aS'0085/0066.png'
p1298
aS'0085/0071.png'
p1299
aS'0085/0076.png'
p1300
aS'0085/0081.png'
p1301
aS'0085/0086.png'
p1302
aS'0085/0091.png'
p1303
aS'0085/0096.png'
p1304
aS'0085/0101.png'
p1305
aS'0085/0106.png'
p1306
aS'0085/0111.png'
p1307
aa(lp1308
S'0093/0002.png'
p1309
aS'0093/0003.png'
p1310
aS'0093/0004.png'
p1311
aS'0093/0005.png'
p1312
aS'0093/0006.png'
p1313
aS'0093/0007.png'
p1314
aS'0093/0008.png'
p1315
aS'0093/0009.png'
p1316
aS'0093/0010.png'
p1317
aS'0093/0011.png'
p1318
aS'0093/0012.png'
p1319
aS'0093/0013.png'
p1320
aS'0093/0014.png'
p1321
aS'0093/0015.png'
p1322
aS'0093/0016.png'
p1323
aS'0093/0017.png'
p1324
aS'0093/0018.png'
p1325
aS'0093/0019.png'
p1326
aS'0093/0020.png'
p1327
aS'0093/0021.png'
p1328
aS'0093/0022.png'
p1329
aS'0093/0023.png'
p1330
aS'0093/0024.png'
p1331
aS'0093/0025.png'
p1332
aS'0093/0026.png'
p1333
aS'0093/0027.png'
p1334
aS'0093/0028.png'
p1335
aS'0093/0029.png'
p1336
aS'0093/0030.png'
p1337
aS'0093/0031.png'
p1338
aS'0093/0032.png'
p1339
aS'0093/0033.png'
p1340
aS'0093/0034.png'
p1341
aS'0093/0035.png'
p1342
aS'0093/0036.png'
p1343
aS'0093/0037.png'
p1344
aS'0093/0038.png'
p1345
aS'0093/0039.png'
p1346
aS'0093/0040.png'
p1347
aS'0093/0041.png'
p1348
aS'0093/0042.png'
p1349
aS'0093/0043.png'
p1350
aS'0093/0044.png'
p1351
aS'0093/0045.png'
p1352
aS'0093/0046.png'
p1353
aS'0093/0047.png'
p1354
aS'0093/0048.png'
p1355
aS'0093/0049.png'
p1356
aS'0093/0050.png'
p1357
aS'0093/0051.png'
p1358
aS'0093/0052.png'
p1359
aS'0093/0053.png'
p1360
aS'0093/0054.png'
p1361
aS'0093/0055.png'
p1362
aS'0093/0056.png'
p1363
aS'0093/0057.png'
p1364
aS'0093/0058.png'
p1365
aa(lp1366
S'0095/0085.png'
p1367
aS'0095/0086.png'
p1368
aS'0095/0087.png'
p1369
aS'0095/0088.png'
p1370
aS'0095/0089.png'
p1371
aS'0095/0090.png'
p1372
aS'0095/0091.png'
p1373
aS'0095/0092.png'
p1374
aS'0095/0093.png'
p1375
aS'0095/0094.png'
p1376
aS'0095/0095.png'
p1377
aS'0095/0097.png'
p1378
aS'0095/0098.png'
p1379
aS'0095/0099.png'
p1380
aS'0095/0100.png'
p1381
aS'0095/0101.png'
p1382
aS'0095/0102.png'
p1383
aS'0095/0103.png'
p1384
aS'0095/0104.png'
p1385
aS'0095/0105.png'
p1386
aS'0095/0106.png'
p1387
aS'0095/0107.png'
p1388
aS'0095/0108.png'
p1389
aS'0095/0109.png'
p1390
aS'0095/0110.png'
p1391
aS'0095/0111.png'
p1392
aS'0095/0112.png'
p1393
aS'0095/0113.png'
p1394
aS'0095/0114.png'
p1395
aS'0095/0122.png'
p1396
aS'0095/0123.png'
p1397
aS'0095/0124.png'
p1398
aS'0095/0125.png'
p1399
aS'0095/0126.png'
p1400
aS'0095/0127.png'
p1401
aS'0095/0128.png'
p1402
aS'0095/0129.png'
p1403
aS'0095/0130.png'
p1404
aS'0095/0131.png'
p1405
aS'0095/0132.png'
p1406
aS'0095/0133.png'
p1407
aS'0095/0144.png'
p1408
aS'0095/0145.png'
p1409
aS'0095/0146.png'
p1410
aS'0095/0147.png'
p1411
aS'0095/0148.png'
p1412
aS'0095/0149.png'
p1413
aS'0095/0150.png'
p1414
aS'0095/0151.png'
p1415
aS'0095/0152.png'
p1416
aS'0095/0153.png'
p1417
aS'0095/0179.png'
p1418
aS'0095/0180.png'
p1419
aS'0095/0181.png'
p1420
aS'0095/0182.png'
p1421
aS'0095/0183.png'
p1422
aa(lp1423
S'0096/20071204_102213.jpg'
p1424
aS'0096/20071204_104001.jpg'
p1425
aS'0096/20071204_105002.jpg'
p1426
aS'0096/20071204_110001.jpg'
p1427
aS'0096/20071204_111002.jpg'
p1428
aS'0096/20071204_111545.jpg'
p1429
aS'0096/20071204_112001.jpg'
p1430
aS'0096/20071204_113001.jpg'
p1431
aS'0096/20071204_114001.jpg'
p1432
aS'0096/20071204_115002.jpg'
p1433
aS'0096/20071204_121005.jpg'
p1434
aS'0096/20071204_122002.jpg'
p1435
aS'0096/20071204_123002.jpg'
p1436
aS'0096/20071204_124002.jpg'
p1437
aS'0096/20071204_125002.jpg'
p1438
aS'0096/20071204_130001.jpg'
p1439
aS'0096/20071204_131001.jpg'
p1440
aS'0096/20071204_132001.jpg'
p1441
aS'0096/20071204_133001.jpg'
p1442
aS'0096/20071204_134001.jpg'
p1443
aS'0096/20071204_135001.jpg'
p1444
aS'0096/20071204_140002.jpg'
p1445
aS'0096/20071204_142003.jpg'
p1446
aS'0096/20071204_143002.jpg'
p1447
aS'0096/20071204_144002.jpg'
p1448
aS'0096/20071204_145002.jpg'
p1449
aS'0096/20071204_150002.jpg'
p1450
aS'0096/20071204_152002.jpg'
p1451
aS'0096/20071204_153001.jpg'
p1452
aS'0096/20071204_154002.jpg'
p1453
aS'0096/20071204_155002.jpg'
p1454
aS'0096/20071204_160001.jpg'
p1455
aS'0096/20071204_161001.jpg'
p1456
aS'0096/20071204_162001.jpg'
p1457
aS'0096/20071204_163002.jpg'
p1458
aS'0096/20071204_164001.jpg'
p1459
aS'0096/20071204_165001.jpg'
p1460
aS'0096/20071204_170001.jpg'
p1461
aS'0096/20071204_171001.jpg'
p1462
aS'0096/20071204_172001.jpg'
p1463
aS'0096/20071204_173001.jpg'
p1464
aS'0096/20071204_174001.jpg'
p1465
aS'0096/20071204_175001.jpg'
p1466
aS'0096/20071204_180001.jpg'
p1467
aS'0096/20071204_181001.jpg'
p1468
aS'0096/20071204_182001.jpg'
p1469
aS'0096/20071204_183002.jpg'
p1470
aS'0096/20071204_184002.jpg'
p1471
aS'0096/20071204_185002.jpg'
p1472
aS'0096/20071204_190001.jpg'
p1473
aS'0096/20071204_191001.jpg'
p1474
aa(lp1475
S'0118/0001.png'
p1476
aS'0118/0002.png'
p1477
aS'0118/0003.png'
p1478
aS'0118/0004.png'
p1479
aS'0118/0005.png'
p1480
aS'0118/0006.png'
p1481
aS'0118/0007.png'
p1482
aS'0118/0008.png'
p1483
aS'0118/0009.png'
p1484
aS'0118/0010.png'
p1485
aS'0118/0011.png'
p1486
aS'0118/0012.png'
p1487
aS'0118/0013.png'
p1488
aS'0118/0014.png'
p1489
aS'0118/0015.png'
p1490
aS'0118/0016.png'
p1491
aS'0118/0017.png'
p1492
aS'0118/0018.png'
p1493
aS'0118/0019.png'
p1494
aS'0118/0020.png'
p1495
aS'0118/0021.png'
p1496
aS'0118/0022.png'
p1497
aS'0118/0023.png'
p1498
aS'0118/0024.png'
p1499
aa(lp1500
S'0124/0001.png'
p1501
aS'0124/0002.png'
p1502
aS'0124/0003.png'
p1503
aS'0124/0004.png'
p1504
aS'0124/0005.png'
p1505
aS'0124/0006.png'
p1506
aS'0124/0007.png'
p1507
aS'0124/0008.png'
p1508
aS'0124/0009.png'
p1509
aS'0124/0010.png'
p1510
aS'0124/0011.png'
p1511
aS'0124/0012.png'
p1512
aS'0124/0013.png'
p1513
aS'0124/0014.png'
p1514
aS'0124/0015.png'
p1515
aS'0124/0016.png'
p1516
aS'0124/0017.png'
p1517
aS'0124/0018.png'
p1518
aS'0124/0019.png'
p1519
aS'0124/0020.png'
p1520
aS'0124/0021.png'
p1521
aS'0124/0022.png'
p1522
aS'0124/0023.png'
p1523
aS'0124/0024.png'
p1524
aS'0124/0025.png'
p1525
aS'0124/0026.png'
p1526
aS'0124/0027.png'
p1527
aS'0124/0028.png'
p1528
aS'0124/0029.png'
p1529
aS'0124/0030.png'
p1530
aS'0124/0031.png'
p1531
aS'0124/0032.png'
p1532
aS'0124/0033.png'
p1533
aS'0124/0034.png'
p1534
aa(lp1535
S'0125/0001.png'
p1536
aS'0125/0004.png'
p1537
aS'0125/0008.png'
p1538
aS'0125/0011.png'
p1539
aS'0125/0014.png'
p1540
aS'0125/0018.png'
p1541
aS'0125/0021.png'
p1542
aS'0125/0024.png'
p1543
aS'0125/0028.png'
p1544
aS'0125/0031.png'
p1545
aS'0125/0034.png'
p1546
aS'0125/0038.png'
p1547
aS'0125/0041.png'
p1548
aS'0125/0044.png'
p1549
aS'0125/0048.png'
p1550
aS'0125/0051.png'
p1551
aS'0125/0054.png'
p1552
aS'0125/0058.png'
p1553
aS'0125/0061.png'
p1554
aS'0125/0064.png'
p1555
aS'0125/0068.png'
p1556
aS'0125/0071.png'
p1557
aS'0125/0074.png'
p1558
aS'0125/0078.png'
p1559
aS'0125/0081.png'
p1560
aS'0125/0084.png'
p1561
aS'0125/0088.png'
p1562
aS'0125/0091.png'
p1563
aS'0125/0094.png'
p1564
aS'0125/0098.png'
p1565
aS'0125/0101.png'
p1566
aS'0125/0104.png'
p1567
aS'0125/0108.png'
p1568
aS'0125/0111.png'
p1569
aS'0125/0114.png'
p1570
aS'0125/0118.png'
p1571
aS'0125/0121.png'
p1572
aS'0125/0124.png'
p1573
aS'0125/0128.png'
p1574
aS'0125/0134.png'
p1575
aS'0125/0141.png'
p1576
aS'0125/0148.png'
p1577
aS'0125/0154.png'
p1578
aa(lp1579
S'0128/0005.png'
p1580
aS'0128/0010.png'
p1581
aS'0128/0015.png'
p1582
aS'0128/0020.png'
p1583
aS'0128/0025.png'
p1584
aS'0128/0030.png'
p1585
aS'0128/0035.png'
p1586
aS'0128/0040.png'
p1587
aS'0128/0045.png'
p1588
aS'0128/0050.png'
p1589
aS'0128/0055.png'
p1590
aS'0128/0060.png'
p1591
aS'0128/0065.png'
p1592
aS'0128/0070.png'
p1593
aS'0128/0075.png'
p1594
aS'0128/0080.png'
p1595
aS'0128/0085.png'
p1596
aS'0128/0090.png'
p1597
aS'0128/0095.png'
p1598
aS'0128/0100.png'
p1599
aS'0128/0105.png'
p1600
aS'0128/0110.png'
p1601
aS'0128/0115.png'
p1602
aS'0128/0120.png'
p1603
aS'0128/0125.png'
p1604
aS'0128/0130.png'
p1605
aS'0128/0135.png'
p1606
aS'0128/0140.png'
p1607
aS'0128/0145.png'
p1608
aa(lp1609
S'0129/0005.png'
p1610
aS'0129/0010.png'
p1611
aS'0129/0015.png'
p1612
aS'0129/0020.png'
p1613
aS'0129/0025.png'
p1614
aS'0129/0030.png'
p1615
aS'0129/0035.png'
p1616
aS'0129/0040.png'
p1617
aS'0129/0045.png'
p1618
aS'0129/0050.png'
p1619
aS'0129/0055.png'
p1620
aS'0129/0060.png'
p1621
aS'0129/0065.png'
p1622
aS'0129/0070.png'
p1623
aS'0129/0075.png'
p1624
aS'0129/0080.png'
p1625
aS'0129/0085.png'
p1626
aS'0129/0090.png'
p1627
aS'0129/0095.png'
p1628
aS'0129/0100.png'
p1629
aS'0129/0105.png'
p1630
aS'0129/0110.png'
p1631
aS'0129/0115.png'
p1632
aS'0129/0120.png'
p1633
aS'0129/0125.png'
p1634
aS'0129/0130.png'
p1635
aS'0129/0135.png'
p1636
aS'0129/0140.png'
p1637
aS'0129/0145.png'
p1638
aS'0129/0150.png'
p1639
aS'0129/0155.png'
p1640
aS'0129/0160.png'
p1641
aS'0129/0165.png'
p1642
aS'0129/0170.png'
p1643
aS'0129/0175.png'
p1644
aS'0129/0180.png'
p1645
aa(lp1646
S'0130/20140503_164009.jpg'
p1647
aS'0130/20140504_034021.jpg'
p1648
aS'0130/20140504_041020.jpg'
p1649
aS'0130/20140504_044021.jpg'
p1650
aS'0130/20140504_051013.jpg'
p1651
aS'0130/20140504_054013.jpg'
p1652
aS'0130/20140504_061026.jpg'
p1653
aS'0130/20140504_064022.jpg'
p1654
aS'0130/20140504_071017.jpg'
p1655
aS'0130/20140504_074021.jpg'
p1656
aS'0130/20140504_081024.jpg'
p1657
aS'0130/20140504_084015.jpg'
p1658
aS'0130/20140504_091008.jpg'
p1659
aS'0130/20140504_094015.jpg'
p1660
aS'0130/20140504_101018.jpg'
p1661
aS'0130/20140504_104020.jpg'
p1662
aS'0130/20140504_111020.jpg'
p1663
aS'0130/20140504_114015.jpg'
p1664
aS'0130/20140504_121018.jpg'
p1665
aS'0130/20140504_124015.jpg'
p1666
aS'0130/20140504_131015.jpg'
p1667
aS'0130/20140504_134018.jpg'
p1668
aS'0130/20140504_141013.jpg'
p1669
aS'0130/20140504_144015.jpg'
p1670
aS'0130/20140504_151018.jpg'
p1671
aS'0130/20140504_154024.jpg'
p1672
aS'0130/20140504_161013.jpg'
p1673
aS'0130/20140504_164016.jpg'
p1674
aS'0130/20140504_171017.jpg'
p1675
aS'0130/20140504_174015.jpg'
p1676
aS'0130/20140504_181020.jpg'
p1677
aS'0130/20140504_184022.jpg'
p1678
aS'0130/20140504_191014.jpg'
p1679
aa(lp1680
S'0132/20170502_030644.jpg'
p1681
aS'0132/20170502_033641.jpg'
p1682
aS'0132/20170502_040641.jpg'
p1683
aS'0132/20170502_043648.jpg'
p1684
aS'0132/20170502_050648.jpg'
p1685
aS'0132/20170502_063642.jpg'
p1686
aS'0132/20170502_070645.jpg'
p1687
aS'0132/20170502_073637.jpg'
p1688
aS'0132/20170502_080632.jpg'
p1689
aS'0132/20170502_083640.jpg'
p1690
aS'0132/20170502_090633.jpg'
p1691
aS'0132/20170502_093647.jpg'
p1692
aS'0132/20170502_100644.jpg'
p1693
aS'0132/20170502_103657.jpg'
p1694
aS'0132/20170502_110643.jpg'
p1695
aS'0132/20170502_113643.jpg'
p1696
aS'0132/20170502_120643.jpg'
p1697
aS'0132/20170502_123636.jpg'
p1698
aS'0132/20170502_130647.jpg'
p1699
aS'0132/20170502_133644.jpg'
p1700
aS'0132/20170502_140646.jpg'
p1701
aS'0132/20170502_143639.jpg'
p1702
aS'0132/20170502_150643.jpg'
p1703
aS'0132/20170502_153657.jpg'
p1704
aS'0132/20170502_160643.jpg'
p1705
aS'0132/20170502_163647.jpg'
p1706
aS'0132/20170502_170653.jpg'
p1707
aS'0132/20170502_173644.jpg'
p1708
aS'0132/20170502_180636.jpg'
p1709
aS'0132/20170502_183644.jpg'
p1710
aa(lp1711
S'0133/20130501_060759.jpg'
p1712
aS'0133/20130501_063800.jpg'
p1713
aS'0133/20130501_070805.jpg'
p1714
aS'0133/20130501_073759.jpg'
p1715
aS'0133/20130501_090809.jpg'
p1716
aS'0133/20130501_093807.jpg'
p1717
aS'0133/20130501_100801.jpg'
p1718
aS'0133/20130501_103805.jpg'
p1719
aS'0133/20130501_110800.jpg'
p1720
aS'0133/20130501_113803.jpg'
p1721
aS'0133/20130501_120808.jpg'
p1722
aS'0133/20130501_123804.jpg'
p1723
aS'0133/20130501_130806.jpg'
p1724
aS'0133/20130501_133802.jpg'
p1725
aS'0133/20130501_140813.jpg'
p1726
aS'0133/20130501_143810.jpg'
p1727
aS'0133/20130501_150805.jpg'
p1728
aS'0133/20130501_153808.jpg'
p1729
aS'0133/20130501_160807.jpg'
p1730
aS'0133/20130501_163811.jpg'
p1731
aS'0133/20130501_170807.jpg'
p1732
aS'0133/20130505_103806.jpg'
p1733
aS'0133/20130505_110804.jpg'
p1734
aS'0133/20130505_113801.jpg'
p1735
aS'0133/20130505_120801.jpg'
p1736
aS'0133/20130505_123759.jpg'
p1737
aS'0133/20130505_130808.jpg'
p1738
aS'0133/20130505_140800.jpg'
p1739
aS'0133/20130505_143806.jpg'
p1740
aS'0133/20130505_150759.jpg'
p1741
aS'0133/20130505_153805.jpg'
p1742
aS'0133/20130505_160800.jpg'
p1743
aS'0133/20130505_163806.jpg'
p1744
aS'0133/20130505_170758.jpg'
p1745
aS'0133/20130505_173806.jpg'
p1746
aa(lp1747
S'0134/20130607_070249.jpg'
p1748
aS'0134/20130607_073238.jpg'
p1749
aS'0134/20130607_080241.jpg'
p1750
aS'0134/20130607_083240.jpg'
p1751
aS'0134/20130607_090242.jpg'
p1752
aS'0134/20130607_093240.jpg'
p1753
aS'0134/20130607_100253.jpg'
p1754
aS'0134/20130607_103251.jpg'
p1755
aS'0134/20130607_110244.jpg'
p1756
aS'0134/20130607_113251.jpg'
p1757
aS'0134/20130607_120246.jpg'
p1758
aS'0134/20130607_123245.jpg'
p1759
aS'0134/20130607_130252.jpg'
p1760
aS'0134/20130607_133248.jpg'
p1761
aS'0134/20130607_140248.jpg'
p1762
aS'0134/20130607_143254.jpg'
p1763
aS'0134/20130607_150242.jpg'
p1764
aS'0134/20130607_153256.jpg'
p1765
aS'0134/20130607_160242.jpg'
p1766
aS'0134/20130607_163245.jpg'
p1767
aS'0134/20130607_170243.jpg'
p1768
aS'0134/20130607_173248.jpg'
p1769
aS'0134/20130607_180242.jpg'
p1770
aS'0134/20130607_183249.jpg'
p1771
aa(lp1772
S'0135/20140501_002557.jpg'
p1773
aS'0135/20140501_005552.jpg'
p1774
aS'0135/20140501_015548.jpg'
p1775
aS'0135/20140501_022548.jpg'
p1776
aS'0135/20140501_025548.jpg'
p1777
aS'0135/20140501_032554.jpg'
p1778
aS'0135/20140501_035551.jpg'
p1779
aS'0135/20140501_042547.jpg'
p1780
aS'0135/20140501_045555.jpg'
p1781
aS'0135/20140501_052546.jpg'
p1782
aS'0135/20140501_055547.jpg'
p1783
aS'0135/20140501_062602.jpg'
p1784
aS'0135/20140501_065551.jpg'
p1785
aS'0135/20140501_072602.jpg'
p1786
aS'0135/20140501_075604.jpg'
p1787
aS'0135/20140501_082549.jpg'
p1788
aS'0135/20140501_085547.jpg'
p1789
aS'0135/20140501_092600.jpg'
p1790
aS'0135/20140501_102607.jpg'
p1791
aS'0135/20140501_112547.jpg'
p1792
aS'0135/20140501_115558.jpg'
p1793
aS'0135/20140501_122547.jpg'
p1794
aS'0135/20140501_125552.jpg'
p1795
aS'0135/20140501_132557.jpg'
p1796
aS'0135/20140501_135557.jpg'
p1797
aS'0135/20140501_142550.jpg'
p1798
aS'0135/20140501_145557.jpg'
p1799
aS'0135/20140501_162552.jpg'
p1800
aS'0135/20140501_165553.jpg'
p1801
aS'0135/20140501_172551.jpg'
p1802
aS'0135/20140501_175549.jpg'
p1803
aS'0135/20140501_182554.jpg'
p1804
aS'0135/20140501_205549.jpg'
p1805
aS'0135/20140501_212551.jpg'
p1806
aS'0135/20140501_215553.jpg'
p1807
aa(lp1808
S'0136/20160501_044559.jpg'
p1809
aS'0136/20160501_051554.jpg'
p1810
aS'0136/20160501_054553.jpg'
p1811
aS'0136/20160501_061552.jpg'
p1812
aS'0136/20160501_064555.jpg'
p1813
aS'0136/20160501_071556.jpg'
p1814
aS'0136/20160501_074611.jpg'
p1815
aS'0136/20160501_081600.jpg'
p1816
aS'0136/20160501_084550.jpg'
p1817
aS'0136/20160501_094547.jpg'
p1818
aS'0136/20160501_104550.jpg'
p1819
aS'0136/20160501_111556.jpg'
p1820
aS'0136/20160501_114554.jpg'
p1821
aS'0136/20160501_121559.jpg'
p1822
aS'0136/20160501_124602.jpg'
p1823
aS'0136/20160501_131607.jpg'
p1824
aS'0136/20160501_134555.jpg'
p1825
aS'0136/20160501_141554.jpg'
p1826
aS'0136/20160501_144559.jpg'
p1827
aS'0136/20160501_151622.jpg'
p1828
aS'0136/20160501_154559.jpg'
p1829
aS'0136/20160501_161558.jpg'
p1830
aS'0136/20160501_164556.jpg'
p1831
aS'0136/20160501_171600.jpg'
p1832
aS'0136/20160501_174557.jpg'
p1833
aS'0136/20160501_181605.jpg'
p1834
aS'0136/20160504_154610.jpg'
p1835
aS'0136/20160504_161653.jpg'
p1836
aS'0136/20160504_164546.jpg'
p1837
aS'0136/20160504_171554.jpg'
p1838
aS'0136/20160504_174552.jpg'
p1839
aS'0136/20160504_181641.jpg'
p1840
aa(lp1841
S'0138/20080915_015011.jpg'
p1842
aS'0138/20080915_021010.jpg'
p1843
aS'0138/20080915_022011.jpg'
p1844
aS'0138/20080915_023021.jpg'
p1845
aS'0138/20080915_024012.jpg'
p1846
aS'0138/20080915_025021.jpg'
p1847
aS'0138/20080915_031012.jpg'
p1848
aS'0138/20080915_032015.jpg'
p1849
aS'0138/20080915_034014.jpg'
p1850
aS'0138/20080915_035013.jpg'
p1851
aS'0138/20080915_040023.jpg'
p1852
aS'0138/20080915_041032.jpg'
p1853
aS'0138/20080915_043021.jpg'
p1854
aS'0138/20080915_045010.jpg'
p1855
aS'0138/20080915_053011.jpg'
p1856
aS'0138/20080915_054010.jpg'
p1857
aS'0138/20080915_060012.jpg'
p1858
aS'0138/20080915_061010.jpg'
p1859
aS'0138/20080915_063012.jpg'
p1860
aS'0138/20080915_064011.jpg'
p1861
aS'0138/20080915_071015.jpg'
p1862
aS'0138/20080915_073011.jpg'
p1863
aS'0138/20080915_075012.jpg'
p1864
aS'0138/20080915_080014.jpg'
p1865
aS'0138/20080915_081011.jpg'
p1866
aS'0138/20080915_082011.jpg'
p1867
aS'0138/20080915_084010.jpg'
p1868
aS'0138/20080915_085011.jpg'
p1869
aS'0138/20080915_090011.jpg'
p1870
aS'0138/20080915_091010.jpg'
p1871
aS'0138/20080915_092013.jpg'
p1872
aS'0138/20080915_093011.jpg'
p1873
aS'0138/20080915_094011.jpg'
p1874
aS'0138/20080915_095012.jpg'
p1875
aS'0138/20080915_100011.jpg'
p1876
aS'0138/20080915_101011.jpg'
p1877
aS'0138/20080915_102011.jpg'
p1878
aS'0138/20080915_104011.jpg'
p1879
aS'0138/20080915_105012.jpg'
p1880
aS'0138/20080915_110014.jpg'
p1881
aS'0138/20080915_111300.jpg'
p1882
aS'0138/20080915_114011.jpg'
p1883
aS'0138/20080915_115012.jpg'
p1884
aS'0138/20080915_120012.jpg'
p1885
aS'0138/20080915_121012.jpg'
p1886
aS'0138/20080915_122013.jpg'
p1887
aS'0138/20080915_124011.jpg'
p1888
aS'0138/20080915_125012.jpg'
p1889
aS'0138/20080915_132012.jpg'
p1890
aS'0138/20080915_134012.jpg'
p1891
aS'0138/20080915_145010.jpg'
p1892
aa(lp1893
S'0139/20071204_163004.jpg'
p1894
aS'0139/20071204_164003.jpg'
p1895
aS'0139/20071204_165004.jpg'
p1896
aS'0139/20071204_170003.jpg'
p1897
aS'0139/20071204_171004.jpg'
p1898
aS'0139/20071204_172004.jpg'
p1899
aS'0139/20071204_173004.jpg'
p1900
aS'0139/20071204_174004.jpg'
p1901
aS'0139/20071204_175004.jpg'
p1902
aS'0139/20071204_180003.jpg'
p1903
aS'0139/20071204_181003.jpg'
p1904
aS'0139/20071204_182004.jpg'
p1905
aS'0139/20071204_183004.jpg'
p1906
aS'0139/20071204_184004.jpg'
p1907
aS'0139/20071204_185004.jpg'
p1908
aS'0139/20071204_190003.jpg'
p1909
aS'0139/20071204_191004.jpg'
p1910
aS'0139/20071204_192003.jpg'
p1911
aS'0139/20071204_193004.jpg'
p1912
aS'0139/20071204_194004.jpg'
p1913
aS'0139/20071204_195004.jpg'
p1914
aS'0139/20071204_200004.jpg'
p1915
aS'0139/20071204_201004.jpg'
p1916
aS'0139/20071204_202003.jpg'
p1917
aS'0139/20071204_203004.jpg'
p1918
aS'0139/20071204_204004.jpg'
p1919
aS'0139/20071204_205004.jpg'
p1920
aS'0139/20071204_210003.jpg'
p1921
aS'0139/20071204_211004.jpg'
p1922
aS'0139/20071204_212004.jpg'
p1923
aS'0139/20071204_213004.jpg'
p1924
aS'0139/20071204_214004.jpg'
p1925
aS'0139/20071204_215004.jpg'
p1926
aS'0139/20071204_220004.jpg'
p1927
aS'0139/20071204_221004.jpg'
p1928
aS'0139/20071204_222004.jpg'
p1929
aS'0139/20071204_223004.jpg'
p1930
aS'0139/20071204_224004.jpg'
p1931
aS'0139/20071204_225004.jpg'
p1932
aS'0139/20071204_230004.jpg'
p1933
aS'0139/20071204_231005.jpg'
p1934
aS'0139/20071204_232003.jpg'
p1935
aS'0139/20071204_233006.jpg'
p1936
aS'0139/20071204_234004.jpg'
p1937
aS'0139/20071204_235003.jpg'
p1938
aa(lp1939
S'0140/0010.png'
p1940
aS'0140/0030.png'
p1941
aS'0140/0050.png'
p1942
aS'0140/0070.png'
p1943
aS'0140/0090.png'
p1944
aS'0140/0100.png'
p1945
aS'0140/0110.png'
p1946
aS'0140/0120.png'
p1947
aS'0140/0130.png'
p1948
aS'0140/0140.png'
p1949
aS'0140/0150.png'
p1950
aS'0140/0160.png'
p1951
aS'0140/0170.png'
p1952
aS'0140/0180.png'
p1953
aS'0140/0190.png'
p1954
aS'0140/0200.png'
p1955
aS'0140/0210.png'
p1956
aS'0140/0220.png'
p1957
aS'0140/0230.png'
p1958
aS'0140/0240.png'
p1959
aS'0140/0250.png'
p1960
aS'0140/0260.png'
p1961
aS'0140/0270.png'
p1962
aS'0140/0280.png'
p1963
aS'0140/0290.png'
p1964
aS'0140/0300.png'
p1965
aa(lp1966
S'0141/0003.png'
p1967
aS'0141/0004.png'
p1968
aS'0141/0005.png'
p1969
aS'0141/0006.png'
p1970
aS'0141/0007.png'
p1971
aS'0141/0008.png'
p1972
aS'0141/0009.png'
p1973
aS'0141/0010.png'
p1974
aS'0141/0011.png'
p1975
aS'0141/0012.png'
p1976
aS'0141/0013.png'
p1977
aS'0141/0014.png'
p1978
aS'0141/0015.png'
p1979
aS'0141/0016.png'
p1980
aS'0141/0017.png'
p1981
aS'0141/0018.png'
p1982
aS'0141/0019.png'
p1983
aS'0141/0020.png'
p1984
aS'0141/0021.png'
p1985
aS'0141/0022.png'
p1986
aS'0141/0023.png'
p1987
aS'0141/0024.png'
p1988
aS'0141/0025.png'
p1989
aS'0141/0026.png'
p1990
aS'0141/0027.png'
p1991
aS'0141/0028.png'
p1992
aS'0141/0029.png'
p1993
aS'0141/0030.png'
p1994
aS'0141/0031.png'
p1995
aS'0141/0032.png'
p1996
aS'0141/0033.png'
p1997
aS'0141/0034.png'
p1998
aS'0141/0035.png'
p1999
aS'0141/0036.png'
p2000
aS'0141/0037.png'
p2001
aS'0141/0038.png'
p2002
aS'0141/0039.png'
p2003
aS'0141/0040.png'
p2004
aS'0141/0041.png'
p2005
aS'0141/0042.png'
p2006
aS'0141/0043.png'
p2007
aS'0141/0044.png'
p2008
aS'0141/0045.png'
p2009
aS'0141/0046.png'
p2010
aS'0141/0048.png'
p2011
aS'0141/0050.png'
p2012
aS'0141/0051.png'
p2013
aS'0141/0053.png'
p2014
aS'0141/0055.png'
p2015
aS'0141/0057.png'
p2016
aa(lp2017
S'0142/0001.png'
p2018
aS'0142/0006.png'
p2019
aS'0142/0011.png'
p2020
aS'0142/0016.png'
p2021
aS'0142/0021.png'
p2022
aS'0142/0026.png'
p2023
aS'0142/0031.png'
p2024
aS'0142/0036.png'
p2025
aS'0142/0041.png'
p2026
aS'0142/0046.png'
p2027
aS'0142/0051.png'
p2028
aS'0142/0056.png'
p2029
aS'0142/0061.png'
p2030
aS'0142/0066.png'
p2031
aS'0142/0071.png'
p2032
aS'0142/0076.png'
p2033
aS'0142/0081.png'
p2034
aS'0142/0086.png'
p2035
aS'0142/0091.png'
p2036
aS'0142/0096.png'
p2037
aS'0142/0101.png'
p2038
aS'0142/0106.png'
p2039
aS'0142/0111.png'
p2040
aS'0142/0116.png'
p2041
aS'0142/0121.png'
p2042
aS'0142/0126.png'
p2043
aS'0142/0131.png'
p2044
aa(lp2045
S'0143/0001.png'
p2046
aS'0143/0011.png'
p2047
aS'0143/0020.png'
p2048
aS'0143/0030.png'
p2049
aS'0143/0040.png'
p2050
aS'0143/0050.png'
p2051
aS'0143/0060.png'
p2052
aS'0143/0070.png'
p2053
aS'0143/0080.png'
p2054
aS'0143/0090.png'
p2055
aS'0143/0100.png'
p2056
aS'0143/0110.png'
p2057
aS'0143/0120.png'
p2058
aS'0143/0130.png'
p2059
aS'0143/0140.png'
p2060
aS'0143/0150.png'
p2061
aS'0143/0160.png'
p2062
aS'0143/0170.png'
p2063
aS'0143/0190.png'
p2064
aS'0143/0200.png'
p2065
aS'0143/0210.png'
p2066
aS'0143/0220.png'
p2067
aS'0143/0230.png'
p2068
aS'0143/0240.png'
p2069
aS'0143/0250.png'
p2070
aS'0143/0260.png'
p2071
aS'0143/0270.png'
p2072
aS'0143/0280.png'
p2073
aS'0143/0290.png'
p2074
aS'0143/0300.png'
p2075
aS'0143/0310.png'
p2076
aS'0143/0320.png'
p2077
aS'0143/0330.png'
p2078
aS'0143/0340.png'
p2079
aS'0143/0350.png'
p2080
aS'0143/0360.png'
p2081
aS'0143/0370.png'
p2082
aS'0143/0380.png'
p2083
aS'0143/0390.png'
p2084
aS'0143/0400.png'
p2085
aS'0143/0410.png'
p2086
aS'0143/0420.png'
p2087
aS'0143/0430.png'
p2088
aS'0143/0440.png'
p2089
aS'0143/0450.png'
p2090
aS'0143/0460.png'
p2091
aa(lp2092
S'0144/0002.png'
p2093
aS'0144/0006.png'
p2094
aS'0144/0011.png'
p2095
aS'0144/0016.png'
p2096
aS'0144/0026.png'
p2097
aS'0144/0032.png'
p2098
aS'0144/0036.png'
p2099
aS'0144/0041.png'
p2100
aS'0144/0046.png'
p2101
aS'0144/0051.png'
p2102
aS'0144/0056.png'
p2103
aS'0144/0061.png'
p2104
aa(lp2105
S'0150/0001.png'
p2106
aS'0150/0002.png'
p2107
aS'0150/0003.png'
p2108
aS'0150/0004.png'
p2109
aS'0150/0005.png'
p2110
aS'0150/0006.png'
p2111
aS'0150/0007.png'
p2112
aS'0150/0008.png'
p2113
aS'0150/0009.png'
p2114
aS'0150/0010.png'
p2115
aS'0150/0011.png'
p2116
aS'0150/0012.png'
p2117
aS'0150/0013.png'
p2118
aS'0150/0014.png'
p2119
aS'0150/0015.png'
p2120
aS'0150/0016.png'
p2121
aS'0150/0017.png'
p2122
aS'0150/0018.png'
p2123
aS'0150/0019.png'
p2124
aS'0150/0020.png'
p2125
aS'0150/0021.png'
p2126
aS'0150/0022.png'
p2127
aS'0150/0024.png'
p2128
aS'0150/0025.png'
p2129
aS'0150/0026.png'
p2130
aS'0150/0028.png'
p2131
aS'0150/0029.png'
p2132
aS'0150/0030.png'
p2133
aS'0150/0031.png'
p2134
aS'0150/0032.png'
p2135
aS'0150/0034.png'
p2136
aS'0150/0035.png'
p2137
aS'0150/0036.png'
p2138
aS'0150/0037.png'
p2139
aS'0150/0039.png'
p2140
aS'0150/0040.png'
p2141
aS'0150/0041.png'
p2142
aS'0150/0042.png'
p2143
aS'0150/0044.png'
p2144
aS'0150/0045.png'
p2145
aS'0150/0046.png'
p2146
aS'0150/0047.png'
p2147
aS'0150/0048.png'
p2148
aS'0150/0050.png'
p2149
aS'0150/0051.png'
p2150
aS'0150/0052.png'
p2151
aS'0150/0054.png'
p2152
aS'0150/0055.png'
p2153
aS'0150/0056.png'
p2154
aS'0150/0057.png'
p2155
aS'0150/0058.png'
p2156
aS'0150/0059.png'
p2157
aS'0150/0061.png'
p2158
aS'0150/0062.png'
p2159
aa(lp2160
S'0151/0001.png'
p2161
aS'0151/0002.png'
p2162
aS'0151/0003.png'
p2163
aS'0151/0004.png'
p2164
aS'0151/0005.png'
p2165
aS'0151/0006.png'
p2166
aS'0151/0007.png'
p2167
aS'0151/0008.png'
p2168
aS'0151/0009.png'
p2169
aS'0151/0010.png'
p2170
aS'0151/0011.png'
p2171
aS'0151/0012.png'
p2172
aS'0151/0013.png'
p2173
aS'0151/0014.png'
p2174
aS'0151/0015.png'
p2175
aS'0151/0016.png'
p2176
aS'0151/0017.png'
p2177
aS'0151/0018.png'
p2178
aS'0151/0019.png'
p2179
aS'0151/0020.png'
p2180
aS'0151/0021.png'
p2181
aS'0151/0022.png'
p2182
aS'0151/0023.png'
p2183
aS'0151/0024.png'
p2184
aS'0151/0025.png'
p2185
aS'0151/0026.png'
p2186
aS'0151/0027.png'
p2187
aS'0151/0028.png'
p2188
aS'0151/0029.png'
p2189
aS'0151/0030.png'
p2190
aS'0151/0031.png'
p2191
aa(lp2192
S'0152/0001.png'
p2193
aS'0152/0002.png'
p2194
aS'0152/0003.png'
p2195
aS'0152/0004.png'
p2196
aS'0152/0005.png'
p2197
aS'0152/0006.png'
p2198
aS'0152/0007.png'
p2199
aS'0152/0008.png'
p2200
aS'0152/0009.png'
p2201
aS'0152/0010.png'
p2202
aS'0152/0011.png'
p2203
aS'0152/0012.png'
p2204
aS'0152/0013.png'
p2205
aS'0152/0014.png'
p2206
aS'0152/0015.png'
p2207
aS'0152/0016.png'
p2208
aS'0152/0017.png'
p2209
aS'0152/0018.png'
p2210
aS'0152/0019.png'
p2211
aS'0152/0020.png'
p2212
aS'0152/0021.png'
p2213
aS'0152/0022.png'
p2214
aS'0152/0023.png'
p2215
aS'0152/0024.png'
p2216
aS'0152/0025.png'
p2217
aS'0152/0026.png'
p2218
aS'0152/0027.png'
p2219
aS'0152/0028.png'
p2220
aS'0152/0029.png'
p2221
aS'0152/0030.png'
p2222
aS'0152/0031.png'
p2223
aS'0152/0032.png'
p2224
aS'0152/0033.png'
p2225
aS'0152/0034.png'
p2226
aS'0152/0035.png'
p2227
aS'0152/0036.png'
p2228
aS'0152/0037.png'
p2229
aS'0152/0038.png'
p2230
aS'0152/0039.png'
p2231
aS'0152/0040.png'
p2232
aS'0152/0041.png'
p2233
aS'0152/0042.png'
p2234
aS'0152/0043.png'
p2235
aS'0152/0044.png'
p2236
aS'0152/0045.png'
p2237
aS'0152/0046.png'
p2238
aS'0152/0047.png'
p2239
aS'0152/0048.png'
p2240
aS'0152/0049.png'
p2241
aS'0152/0050.png'
p2242
aS'0152/0051.png'
p2243
aS'0152/0052.png'
p2244
aS'0152/0053.png'
p2245
aS'0152/0054.png'
p2246
aS'0152/0055.png'
p2247
aS'0152/0056.png'
p2248
aS'0152/0057.png'
p2249
aS'0152/0058.png'
p2250
aS'0152/0059.png'
p2251
aS'0152/0060.png'
p2252
aS'0152/0061.png'
p2253
aS'0152/0062.png'
p2254
aS'0152/0063.png'
p2255
aa(lp2256
S'0153/0011.png'
p2257
aS'0153/0016.png'
p2258
aS'0153/0021.png'
p2259
aS'0153/0026.png'
p2260
aS'0153/0031.png'
p2261
aS'0153/0036.png'
p2262
aS'0153/0041.png'
p2263
aS'0153/0046.png'
p2264
aS'0153/0051.png'
p2265
aS'0153/0056.png'
p2266
aS'0153/0061.png'
p2267
aS'0153/0066.png'
p2268
aS'0153/0071.png'
p2269
aS'0153/0076.png'
p2270
aS'0153/0081.png'
p2271
aS'0153/0086.png'
p2272
aS'0153/0091.png'
p2273
aS'0153/0096.png'
p2274
aS'0153/0101.png'
p2275
aS'0153/0106.png'
p2276
aS'0153/0111.png'
p2277
aS'0153/0116.png'
p2278
aS'0153/0121.png'
p2279
aS'0153/0126.png'
p2280
aS'0153/0131.png'
p2281
aS'0153/0136.png'
p2282
aS'0153/0141.png'
p2283
aS'0153/0146.png'
p2284
aS'0153/0151.png'
p2285
aS'0153/0156.png'
p2286
aS'0153/0161.png'
p2287
aS'0153/0166.png'
p2288
aa(lp2289
S'0154/0001.png'
p2290
aS'0154/0006.png'
p2291
aS'0154/0011.png'
p2292
aS'0154/0016.png'
p2293
aS'0154/0021.png'
p2294
aS'0154/0026.png'
p2295
aS'0154/0031.png'
p2296
aS'0154/0036.png'
p2297
aS'0154/0041.png'
p2298
aS'0154/0046.png'
p2299
aS'0154/0051.png'
p2300
aS'0154/0056.png'
p2301
aS'0154/0061.png'
p2302
aS'0154/0066.png'
p2303
aS'0154/0071.png'
p2304
aS'0154/0076.png'
p2305
aS'0154/0081.png'
p2306
aS'0154/0086.png'
p2307
aS'0154/0091.png'
p2308
aS'0154/0096.png'
p2309
aS'0154/0101.png'
p2310
aS'0154/0106.png'
p2311
aS'0154/0111.png'
p2312
aS'0154/0116.png'
p2313
aS'0154/0121.png'
p2314
aS'0154/0126.png'
p2315
aS'0154/0131.png'
p2316
aS'0154/0136.png'
p2317
aS'0154/0141.png'
p2318
aS'0154/0146.png'
p2319
aS'0154/0151.png'
p2320
aS'0154/0156.png'
p2321
aa(lp2322
S'0155/0001.png'
p2323
aS'0155/0006.png'
p2324
aS'0155/0011.png'
p2325
aS'0155/0016.png'
p2326
aS'0155/0021.png'
p2327
aS'0155/0026.png'
p2328
aS'0155/0031.png'
p2329
aS'0155/0036.png'
p2330
aS'0155/0041.png'
p2331
aS'0155/0046.png'
p2332
aS'0155/0051.png'
p2333
aS'0155/0056.png'
p2334
aS'0155/0061.png'
p2335
aS'0155/0066.png'
p2336
aS'0155/0071.png'
p2337
aS'0155/0076.png'
p2338
aS'0155/0081.png'
p2339
aS'0155/0086.png'
p2340
aS'0155/0091.png'
p2341
aS'0155/0096.png'
p2342
aS'0155/0101.png'
p2343
aS'0155/0106.png'
p2344
aS'0155/0111.png'
p2345
aS'0155/0116.png'
p2346
aS'0155/0121.png'
p2347
aS'0155/0126.png'
p2348
aS'0155/0131.png'
p2349
aS'0155/0136.png'
p2350
aS'0155/0141.png'
p2351
aS'0155/0146.png'
p2352
aS'0155/0151.png'
p2353
aa(lp2354
S'0156/0001.png'
p2355
aS'0156/0002.png'
p2356
aS'0156/0003.png'
p2357
aS'0156/0004.png'
p2358
aS'0156/0005.png'
p2359
aS'0156/0006.png'
p2360
aS'0156/0007.png'
p2361
aS'0156/0008.png'
p2362
aS'0156/0009.png'
p2363
aS'0156/0010.png'
p2364
aS'0156/0011.png'
p2365
aS'0156/0012.png'
p2366
aS'0156/0013.png'
p2367
aS'0156/0014.png'
p2368
aS'0156/0015.png'
p2369
aS'0156/0016.png'
p2370
aS'0156/0017.png'
p2371
aS'0156/0018.png'
p2372
aS'0156/0019.png'
p2373
aS'0156/0020.png'
p2374
aS'0156/0021.png'
p2375
aS'0156/0022.png'
p2376
aS'0156/0023.png'
p2377
aS'0156/0024.png'
p2378
aS'0156/0025.png'
p2379
aS'0156/0026.png'
p2380
aS'0156/0027.png'
p2381
aS'0156/0028.png'
p2382
aS'0156/0029.png'
p2383
aS'0156/0030.png'
p2384
aS'0156/0031.png'
p2385
aS'0156/0032.png'
p2386
aS'0156/0033.png'
p2387
aS'0156/0034.png'
p2388
aS'0156/0035.png'
p2389
aS'0156/0036.png'
p2390
aS'0156/0037.png'
p2391
aS'0156/0038.png'
p2392
aS'0156/0039.png'
p2393
aS'0156/0040.png'
p2394
aS'0156/0041.png'
p2395
aS'0156/0042.png'
p2396
aS'0156/0043.png'
p2397
aS'0156/0044.png'
p2398
aS'0156/0045.png'
p2399
aS'0156/0046.png'
p2400
aS'0156/0047.png'
p2401
aa(lp2402
S'0157/0010.png'
p2403
aS'0157/0011.png'
p2404
aS'0157/0012.png'
p2405
aS'0157/0013.png'
p2406
aS'0157/0014.png'
p2407
aS'0157/0015.png'
p2408
aS'0157/0016.png'
p2409
aS'0157/0017.png'
p2410
aS'0157/0018.png'
p2411
aS'0157/0019.png'
p2412
aS'0157/0020.png'
p2413
aS'0157/0021.png'
p2414
aS'0157/0022.png'
p2415
aS'0157/0023.png'
p2416
aS'0157/0024.png'
p2417
aS'0157/0025.png'
p2418
aS'0157/0026.png'
p2419
aS'0157/0027.png'
p2420
aS'0157/0028.png'
p2421
aS'0157/0029.png'
p2422
aS'0157/0030.png'
p2423
aS'0157/0031.png'
p2424
aS'0157/0032.png'
p2425
aS'0157/0033.png'
p2426
aS'0157/0034.png'
p2427
aS'0157/0035.png'
p2428
aS'0157/0036.png'
p2429
aS'0157/0037.png'
p2430
aS'0157/0038.png'
p2431
aS'0157/0039.png'
p2432
aS'0157/0040.png'
p2433
aS'0157/0041.png'
p2434
aS'0157/0042.png'
p2435
aS'0157/0043.png'
p2436
aS'0157/0044.png'
p2437
aS'0157/0045.png'
p2438
aS'0157/0046.png'
p2439
aS'0157/0047.png'
p2440
aS'0157/0048.png'
p2441
aS'0157/0049.png'
p2442
aS'0157/0050.png'
p2443
aS'0157/0051.png'
p2444
aS'0157/0052.png'
p2445
aS'0157/0053.png'
p2446
aS'0157/0054.png'
p2447
aS'0157/0055.png'
p2448
aS'0157/0056.png'
p2449
aS'0157/0057.png'
p2450
aS'0157/0058.png'
p2451
aS'0157/0059.png'
p2452
aS'0157/0060.png'
p2453
aS'0157/0061.png'
p2454
aS'0157/0062.png'
p2455
aS'0157/0063.png'
p2456
aS'0157/0064.png'
p2457
aS'0157/0065.png'
p2458
aS'0157/0066.png'
p2459
aS'0157/0067.png'
p2460
aS'0157/0068.png'
p2461
aS'0157/0147.png'
p2462
aS'0157/0152.png'
p2463
aS'0157/0157.png'
p2464
aa(lp2465
S'0158/0001.png'
p2466
aS'0158/0006.png'
p2467
aS'0158/0011.png'
p2468
aS'0158/0016.png'
p2469
aS'0158/0021.png'
p2470
aS'0158/0026.png'
p2471
aS'0158/0031.png'
p2472
aS'0158/0036.png'
p2473
aS'0158/0041.png'
p2474
aS'0158/0046.png'
p2475
aS'0158/0051.png'
p2476
aS'0158/0056.png'
p2477
aS'0158/0061.png'
p2478
aS'0158/0066.png'
p2479
aS'0158/0071.png'
p2480
aS'0158/0076.png'
p2481
aS'0158/0081.png'
p2482
aS'0158/0086.png'
p2483
aS'0158/0091.png'
p2484
aS'0158/0096.png'
p2485
aS'0158/0106.png'
p2486
aS'0158/0111.png'
p2487
aS'0158/0116.png'
p2488
aS'0158/0123.png'
p2489
aS'0158/0126.png'
p2490
aS'0158/0131.png'
p2491
aa(lp2492
S'0159/000.png'
p2493
aS'0159/001.png'
p2494
aS'0159/002.png'
p2495
aS'0159/003.png'
p2496
aS'0159/004.png'
p2497
aS'0159/005.png'
p2498
aS'0159/006.png'
p2499
aS'0159/007.png'
p2500
aS'0159/008.png'
p2501
aS'0159/009.png'
p2502
aS'0159/010.png'
p2503
aS'0159/011.png'
p2504
aS'0159/013.png'
p2505
aS'0159/014.png'
p2506
aS'0159/016.png'
p2507
aS'0159/017.png'
p2508
aS'0159/020.png'
p2509
aS'0159/021.png'
p2510
aS'0159/022.png'
p2511
aS'0159/023.png'
p2512
aS'0159/024.png'
p2513
aS'0159/025.png'
p2514
aS'0159/026.png'
p2515
aS'0159/027.png'
p2516
aS'0159/028.png'
p2517
aS'0159/029.png'
p2518
aS'0159/030.png'
p2519
aS'0159/031.png'
p2520
aS'0159/032.png'
p2521
aS'0159/033.png'
p2522
aS'0159/034.png'
p2523
aS'0159/035.png'
p2524
aS'0159/036.png'
p2525
aS'0159/037.png'
p2526
aS'0159/038.png'
p2527
aS'0159/039.png'
p2528
aS'0159/040.png'
p2529
aS'0159/041.png'
p2530
aS'0159/042.png'
p2531
aS'0159/043.png'
p2532
aS'0159/044.png'
p2533
aS'0159/045.png'
p2534
aS'0159/046.png'
p2535
aS'0159/047.png'
p2536
aS'0159/048.png'
p2537
aS'0159/049.png'
p2538
aS'0159/050.png'
p2539
aS'0159/051.png'
p2540
aS'0159/052.png'
p2541
aS'0159/053.png'
p2542
aS'0159/054.png'
p2543
aS'0159/055.png'
p2544
aS'0159/056.png'
p2545
aS'0159/057.png'
p2546
aS'0159/058.png'
p2547
aS'0159/059.png'
p2548
aS'0159/060.png'
p2549
aS'0159/061.png'
p2550
aS'0159/062.png'
p2551
aS'0159/063.png'
p2552
aa(lp2553
S'0160/20150401_114958.jpg'
p2554
aS'0160/20150401_122000.jpg'
p2555
aS'0160/20150401_124949.jpg'
p2556
aS'0160/20150401_132001.jpg'
p2557
aS'0160/20150401_134952.jpg'
p2558
aS'0160/20150401_141951.jpg'
p2559
aS'0160/20150401_144958.jpg'
p2560
aS'0160/20150401_152009.jpg'
p2561
aS'0160/20150401_154956.jpg'
p2562
aS'0160/20150401_161950.jpg'
p2563
aS'0160/20150401_165002.jpg'
p2564
aS'0160/20150401_172002.jpg'
p2565
aS'0160/20150401_174950.jpg'
p2566
aS'0160/20150401_181958.jpg'
p2567
aS'0160/20150401_185000.jpg'
p2568
aS'0160/20150401_191957.jpg'
p2569
aS'0160/20150401_194949.jpg'
p2570
aS'0160/20150401_201957.jpg'
p2571
aS'0160/20150401_204951.jpg'
p2572
aS'0160/20150401_212005.jpg'
p2573
aS'0160/20150401_214945.jpg'
p2574
aS'0160/20150401_222001.jpg'
p2575
aS'0160/20150401_224956.jpg'
p2576
aS'0160/20150401_231952.jpg'
p2577
aS'0160/20150402_114950.jpg'
p2578
aS'0160/20150402_121953.jpg'
p2579
aS'0160/20150402_124955.jpg'
p2580
aS'0160/20150402_131954.jpg'
p2581
aS'0160/20150402_134953.jpg'
p2582
aS'0160/20150402_141957.jpg'
p2583
aS'0160/20150402_145001.jpg'
p2584
aS'0160/20150402_164953.jpg'
p2585
aS'0160/20150402_171953.jpg'
p2586
aS'0160/20150403_114955.jpg'
p2587
aS'0160/20150403_121949.jpg'
p2588
aS'0160/20150403_124954.jpg'
p2589
aS'0160/20150403_131953.jpg'
p2590
aS'0160/20150403_134953.jpg'
p2591
aa(lp2592
S'0161/20150502_051748.jpg'
p2593
aS'0161/20150502_054747.jpg'
p2594
aS'0161/20150502_071748.jpg'
p2595
aS'0161/20150502_074803.jpg'
p2596
aS'0161/20150502_081753.jpg'
p2597
aS'0161/20150502_084746.jpg'
p2598
aS'0161/20150502_091801.jpg'
p2599
aS'0161/20150502_094748.jpg'
p2600
aS'0161/20150502_101807.jpg'
p2601
aS'0161/20150502_104759.jpg'
p2602
aS'0161/20150502_111754.jpg'
p2603
aS'0161/20150502_114749.jpg'
p2604
aS'0161/20150502_121755.jpg'
p2605
aS'0161/20150502_124756.jpg'
p2606
aS'0161/20150502_131801.jpg'
p2607
aS'0161/20150502_134748.jpg'
p2608
aS'0161/20150502_141746.jpg'
p2609
aS'0161/20150502_144750.jpg'
p2610
aS'0161/20150502_154749.jpg'
p2611
aS'0161/20150502_161800.jpg'
p2612
aS'0161/20150502_164752.jpg'
p2613
aS'0161/20150502_171757.jpg'
p2614
aS'0161/20150502_174755.jpg'
p2615
aS'0161/20150506_094752.jpg'
p2616
aS'0161/20150506_101753.jpg'
p2617
aS'0161/20150506_104747.jpg'
p2618
aS'0161/20150506_111758.jpg'
p2619
aS'0161/20150506_114756.jpg'
p2620
aS'0161/20150506_121751.jpg'
p2621
aS'0161/20150506_124759.jpg'
p2622
aS'0161/20150506_131753.jpg'
p2623
aS'0161/20150506_134749.jpg'
p2624
aS'0161/20150506_141755.jpg'
p2625
aS'0161/20150506_144759.jpg'
p2626
aS'0161/20150506_151745.jpg'
p2627
aS'0161/20150506_154752.jpg'
p2628
aS'0161/20150506_161755.jpg'
p2629
aS'0161/20150506_164751.jpg'
p2630
aS'0161/20150506_171751.jpg'
p2631
aS'0161/20150506_174757.jpg'
p2632
aS'0161/20150508_051754.jpg'
p2633
aS'0161/20150508_054754.jpg'
p2634
aS'0161/20150508_061752.jpg'
p2635
aS'0161/20150508_064753.jpg'
p2636
aS'0161/20150508_071756.jpg'
p2637
aS'0161/20150508_074756.jpg'
p2638
aS'0161/20150508_081744.jpg'
p2639
aS'0161/20150508_084746.jpg'
p2640
aS'0161/20150508_091758.jpg'
p2641
aS'0161/20150508_094758.jpg'
p2642
aS'0161/20150508_101747.jpg'
p2643
aS'0161/20150508_104758.jpg'
p2644
aS'0161/20150508_111751.jpg'
p2645
aS'0161/20150508_114756.jpg'
p2646
aS'0161/20150508_121755.jpg'
p2647
aS'0161/20150508_124754.jpg'
p2648
aa(lp2649
S'0162/0001.png'
p2650
aS'0162/0004.png'
p2651
aS'0162/0007.png'
p2652
aS'0162/0011.png'
p2653
aS'0162/0014.png'
p2654
aS'0162/0017.png'
p2655
aS'0162/0021.png'
p2656
aS'0162/0024.png'
p2657
aS'0162/0027.png'
p2658
aS'0162/0031.png'
p2659
aS'0162/0034.png'
p2660
aS'0162/0037.png'
p2661
aS'0162/0041.png'
p2662
aS'0162/0044.png'
p2663
aS'0162/0047.png'
p2664
aS'0162/0051.png'
p2665
aS'0162/0054.png'
p2666
aS'0162/0057.png'
p2667
aS'0162/0061.png'
p2668
aS'0162/0064.png'
p2669
aS'0162/0067.png'
p2670
aS'0162/0071.png'
p2671
aS'0162/0074.png'
p2672
aS'0162/0077.png'
p2673
aS'0162/0081.png'
p2674
aS'0162/0084.png'
p2675
aS'0162/0087.png'
p2676
aS'0162/0091.png'
p2677
aS'0162/0094.png'
p2678
aS'0162/0097.png'
p2679
aS'0162/0101.png'
p2680
aS'0162/0104.png'
p2681
aS'0162/0107.png'
p2682
aa(lp2683
S'0163/0001.png'
p2684
aS'0163/0002.png'
p2685
aS'0163/0003.png'
p2686
aS'0163/0004.png'
p2687
aS'0163/0005.png'
p2688
aS'0163/0006.png'
p2689
aS'0163/0007.png'
p2690
aS'0163/0008.png'
p2691
aS'0163/0009.png'
p2692
aS'0163/0010.png'
p2693
aS'0163/0011.png'
p2694
aS'0163/0012.png'
p2695
aS'0163/0013.png'
p2696
aS'0163/0014.png'
p2697
aS'0163/0015.png'
p2698
aS'0163/0016.png'
p2699
aS'0163/0017.png'
p2700
aS'0163/0018.png'
p2701
aS'0163/0019.png'
p2702
aS'0163/0020.png'
p2703
aS'0163/0021.png'
p2704
aS'0163/0022.png'
p2705
aS'0163/0023.png'
p2706
aS'0163/0024.png'
p2707
aS'0163/0025.png'
p2708
aS'0163/0026.png'
p2709
aS'0163/0027.png'
p2710
aS'0163/0028.png'
p2711
aS'0163/0029.png'
p2712
aS'0163/0030.png'
p2713
aS'0163/0031.png'
p2714
aS'0163/0032.png'
p2715
aS'0163/0033.png'
p2716
aS'0163/0034.png'
p2717
aS'0163/0035.png'
p2718
aS'0163/0036.png'
p2719
aS'0163/0037.png'
p2720
aS'0163/0038.png'
p2721
aS'0163/0039.png'
p2722
aS'0163/0040.png'
p2723
aS'0163/0041.png'
p2724
aS'0163/0042.png'
p2725
aS'0163/0043.png'
p2726
aS'0163/0044.png'
p2727
aS'0163/0045.png'
p2728
aS'0163/0046.png'
p2729
aS'0163/0047.png'
p2730
aS'0163/0048.png'
p2731
aS'0163/0049.png'
p2732
aS'0163/0050.png'
p2733
aS'0163/0051.png'
p2734
aS'0163/0052.png'
p2735
aS'0163/0053.png'
p2736
aS'0163/0054.png'
p2737
aS'0163/0055.png'
p2738
aS'0163/0056.png'
p2739
aS'0163/0057.png'
p2740
aS'0163/0058.png'
p2741
aS'0163/0059.png'
p2742
aS'0163/0060.png'
p2743
aa(lp2744
S'0164/0001.png'
p2745
aS'0164/0002.png'
p2746
aS'0164/0003.png'
p2747
aS'0164/0004.png'
p2748
aS'0164/0005.png'
p2749
aS'0164/0006.png'
p2750
aS'0164/0007.png'
p2751
aS'0164/0008.png'
p2752
aS'0164/0009.png'
p2753
aS'0164/0010.png'
p2754
aS'0164/0011.png'
p2755
aS'0164/0012.png'
p2756
aS'0164/0013.png'
p2757
aS'0164/0014.png'
p2758
aS'0164/0015.png'
p2759
aS'0164/0016.png'
p2760
aS'0164/0017.png'
p2761
aS'0164/0018.png'
p2762
aS'0164/0019.png'
p2763
aS'0164/0020.png'
p2764
aS'0164/0021.png'
p2765
aS'0164/0022.png'
p2766
aS'0164/0023.png'
p2767
aS'0164/0024.png'
p2768
aS'0164/0025.png'
p2769
aS'0164/0026.png'
p2770
aS'0164/0027.png'
p2771
aS'0164/0028.png'
p2772
aS'0164/0029.png'
p2773
aS'0164/0030.png'
p2774
aS'0164/0031.png'
p2775
aS'0164/0032.png'
p2776
aS'0164/0033.png'
p2777
aS'0164/0034.png'
p2778
aS'0164/0035.png'
p2779
aS'0164/0036.png'
p2780
aS'0164/0037.png'
p2781
aS'0164/0038.png'
p2782
aS'0164/0039.png'
p2783
aS'0164/0040.png'
p2784
aS'0164/0041.png'
p2785
aS'0164/0042.png'
p2786
aS'0164/0043.png'
p2787
aS'0164/0044.png'
p2788
aS'0164/0045.png'
p2789
aS'0164/0046.png'
p2790
aS'0164/0047.png'
p2791
aS'0164/0048.png'
p2792
aS'0164/0049.png'
p2793
aS'0164/0050.png'
p2794
aa(lp2795
S'0165/20090912_051045.jpg'
p2796
aS'0165/20090912_052044.jpg'
p2797
aS'0165/20090912_053049.jpg'
p2798
aS'0165/20090912_054049.jpg'
p2799
aS'0165/20090912_055038.jpg'
p2800
aS'0165/20090912_060101.jpg'
p2801
aS'0165/20090912_061048.jpg'
p2802
aS'0165/20090912_062034.jpg'
p2803
aS'0165/20090912_063042.jpg'
p2804
aS'0165/20090912_064055.jpg'
p2805
aS'0165/20090912_065048.jpg'
p2806
aS'0165/20090912_070037.jpg'
p2807
aS'0165/20090912_071034.jpg'
p2808
aS'0165/20090912_072038.jpg'
p2809
aS'0165/20090912_073041.jpg'
p2810
aS'0165/20090912_074032.jpg'
p2811
aS'0165/20090912_075040.jpg'
p2812
aS'0165/20090912_080054.jpg'
p2813
aS'0165/20090912_081038.jpg'
p2814
aS'0165/20090912_082042.jpg'
p2815
aS'0165/20090912_083101.jpg'
p2816
aS'0165/20090912_084059.jpg'
p2817
aS'0165/20090912_085038.jpg'
p2818
aS'0165/20090912_090047.jpg'
p2819
aS'0165/20090912_092041.jpg'
p2820
aS'0165/20090912_093051.jpg'
p2821
aS'0165/20090912_094104.jpg'
p2822
aS'0165/20090912_095035.jpg'
p2823
aS'0165/20090912_100042.jpg'
p2824
aS'0165/20090912_101033.jpg'
p2825
aS'0165/20090912_102035.jpg'
p2826
aS'0165/20090912_103036.jpg'
p2827
aS'0165/20090912_104044.jpg'
p2828
aS'0165/20090912_105249.jpg'
p2829
aS'0165/20090912_110059.jpg'
p2830
aS'0165/20090912_111039.jpg'
p2831
aS'0165/20090912_112037.jpg'
p2832
aS'0165/20090912_113040.jpg'
p2833
aS'0165/20090912_114102.jpg'
p2834
aS'0165/20090912_115040.jpg'
p2835
aS'0165/20090912_120110.jpg'
p2836
aS'0165/20090912_121043.jpg'
p2837
aS'0165/20090912_122031.jpg'
p2838
aS'0165/20090912_123036.jpg'
p2839
aS'0165/20090912_124108.jpg'
p2840
aS'0165/20090912_125034.jpg'
p2841
aS'0165/20090912_130039.jpg'
p2842
aS'0165/20090912_131106.jpg'
p2843
aS'0165/20090912_132052.jpg'
p2844
aS'0165/20090912_133033.jpg'
p2845
aS'0165/20090912_134035.jpg'
p2846
aS'0165/20090912_135042.jpg'
p2847
aS'0165/20090912_140052.jpg'
p2848
aS'0165/20090912_141048.jpg'
p2849
aS'0165/20090912_143051.jpg'
p2850
aS'0165/20090912_144047.jpg'
p2851
aS'0165/20090912_145054.jpg'
p2852
aS'0165/20090912_150048.jpg'
p2853
aS'0165/20090912_151031.jpg'
p2854
aS'0165/20090912_152050.jpg'
p2855
aS'0165/20090912_153047.jpg'
p2856
aS'0165/20090912_154100.jpg'
p2857
aS'0165/20090912_155033.jpg'
p2858
aa(lp2859
S'0300/0006.png'
p2860
aS'0300/0008.png'
p2861
aS'0300/0010.png'
p2862
aS'0300/0011.png'
p2863
aS'0300/0014.png'
p2864
aS'0300/0015.png'
p2865
aS'0300/0016.png'
p2866
aS'0300/0018.png'
p2867
aS'0300/0019.png'
p2868
aS'0300/0020.png'
p2869
aS'0300/0021.png'
p2870
aS'0300/0023.png'
p2871
aS'0300/0024.png'
p2872
aS'0300/0025.png'
p2873
aS'0300/0026.png'
p2874
aS'0300/0028.png'
p2875
aS'0300/0046.png'
p2876
aS'0300/0048.png'
p2877
aS'0300/0049.png'
p2878
aS'0300/0050.png'
p2879
aS'0300/0051.png'
p2880
aS'0300/0053.png'
p2881
aS'0300/0054.png'
p2882
aS'0300/0055.png'
p2883
aS'0300/0056.png'
p2884
aS'0300/0058.png'
p2885
aS'0300/0059.png'
p2886
aS'0300/0060.png'
p2887
aS'0300/0061.png'
p2888
aS'0300/0063.png'
p2889
aS'0300/0064.png'
p2890
aS'0300/0065.png'
p2891
aS'0300/0066.png'
p2892
aS'0300/0068.png'
p2893
aS'0300/0069.png'
p2894
aS'0300/0070.png'
p2895
aS'0300/0071.png'
p2896
aS'0300/0073.png'
p2897
aS'0300/0074.png'
p2898
aS'0300/0075.png'
p2899
aS'0300/0076.png'
p2900
aS'0300/0078.png'
p2901
aa(lp2902
S'0301/0300.png'
p2903
aS'0301/0304.png'
p2904
aS'0301/0306.png'
p2905
aS'0301/0309.png'
p2906
aS'0301/0310.png'
p2907
aS'0301/0311.png'
p2908
aS'0301/0312.png'
p2909
aS'0301/0313.png'
p2910
aS'0301/0314.png'
p2911
aS'0301/0315.png'
p2912
aS'0301/0316.png'
p2913
aS'0301/0317.png'
p2914
aS'0301/0318.png'
p2915
aS'0301/0319.png'
p2916
aS'0301/0320.png'
p2917
aS'0301/0321.png'
p2918
aS'0301/0322.png'
p2919
aS'0301/0323.png'
p2920
aS'0301/0324.png'
p2921
aS'0301/0325.png'
p2922
aS'0301/0326.png'
p2923
aS'0301/0327.png'
p2924
aS'0301/0328.png'
p2925
aS'0301/0329.png'
p2926
aa(lp2927
S'0302/0002.png'
p2928
aS'0302/0004.png'
p2929
aS'0302/0006.png'
p2930
aS'0302/0008.png'
p2931
aS'0302/0010.png'
p2932
aS'0302/0011.png'
p2933
aS'0302/0012.png'
p2934
aS'0302/0013.png'
p2935
aS'0302/0014.png'
p2936
aS'0302/0015.png'
p2937
aS'0302/0016.png'
p2938
aS'0302/0017.png'
p2939
aS'0302/0018.png'
p2940
aS'0302/0019.png'
p2941
aS'0302/0020.png'
p2942
aS'0302/0021.png'
p2943
aS'0302/0022.png'
p2944
aS'0302/0023.png'
p2945
aS'0302/0024.png'
p2946
aS'0302/0025.png'
p2947
aS'0302/0026.png'
p2948
aS'0302/0027.png'
p2949
aS'0302/0028.png'
p2950
aS'0302/0029.png'
p2951
aS'0302/0030.png'
p2952
aS'0302/0032.png'
p2953
aS'0302/0034.png'
p2954
aS'0302/0036.png'
p2955
aS'0302/0038.png'
p2956
aS'0302/0040.png'
p2957
aS'0302/0042.png'
p2958
aS'0302/0044.png'
p2959
aS'0302/0046.png'
p2960
aS'0302/0048.png'
p2961
aS'0302/0050.png'
p2962
aS'0302/0056.png'
p2963
aS'0302/0057.png'
p2964
aS'0302/0058.png'
p2965
aS'0302/0059.png'
p2966
aS'0302/0060.png'
p2967
aS'0302/0061.png'
p2968
aa(lp2969
S'0304/0006.png'
p2970
aS'0304/0007.png'
p2971
aS'0304/0008.png'
p2972
aS'0304/0009.png'
p2973
aS'0304/0010.png'
p2974
aS'0304/0011.png'
p2975
aS'0304/0012.png'
p2976
aS'0304/0014.png'
p2977
aS'0304/0016.png'
p2978
aS'0304/0017.png'
p2979
aS'0304/0018.png'
p2980
aS'0304/0019.png'
p2981
aS'0304/0020.png'
p2982
aS'0304/0021.png'
p2983
aS'0304/0022.png'
p2984
aS'0304/0023.png'
p2985
aS'0304/0024.png'
p2986
aS'0304/0026.png'
p2987
aS'0304/0027.png'
p2988
aS'0304/0028.png'
p2989
aS'0304/0029.png'
p2990
aS'0304/0030.png'
p2991
aS'0304/0031.png'
p2992
aS'0304/0032.png'
p2993
aS'0304/0033.png'
p2994
aS'0304/0034.png'
p2995
aS'0304/0036.png'
p2996
aS'0304/0037.png'
p2997
aS'0304/0038.png'
p2998
aS'0304/0039.png'
p2999
aS'0304/0040.png'
p3000
aS'0304/0041.png'
p3001
aS'0304/0042.png'
p3002
aS'0304/0043.png'
p3003
aS'0304/0044.png'
p3004
aS'0304/0046.png'
p3005
aS'0304/0047.png'
p3006
aS'0304/0048.png'
p3007
aS'0304/0049.png'
p3008
aS'0304/0050.png'
p3009
aS'0304/0051.png'
p3010
aS'0304/0052.png'
p3011
aS'0304/0053.png'
p3012
aS'0304/0054.png'
p3013
aS'0304/0056.png'
p3014
aS'0304/0057.png'
p3015
aS'0304/0058.png'
p3016
aS'0304/0059.png'
p3017
aS'0304/0060.png'
p3018
aS'0304/0061.png'
p3019
aS'0304/0062.png'
p3020
aS'0304/0063.png'
p3021
aS'0304/0064.png'
p3022
aS'0304/0066.png'
p3023
aS'0304/0067.png'
p3024
aS'0304/0068.png'
p3025
aS'0304/0069.png'
p3026
aS'0304/0070.png'
p3027
aS'0304/0071.png'
p3028
aa(lp3029
S'0305/0026.png'
p3030
aS'0305/0030.png'
p3031
aS'0305/0036.png'
p3032
aS'0305/0040.png'
p3033
aS'0305/0046.png'
p3034
aS'0305/0050.png'
p3035
aS'0305/0056.png'
p3036
aS'0305/0060.png'
p3037
aS'0305/0066.png'
p3038
aS'0305/0070.png'
p3039
aS'0305/0076.png'
p3040
aS'0305/0080.png'
p3041
aS'0305/0086.png'
p3042
aS'0305/0090.png'
p3043
aS'0305/0096.png'
p3044
aS'0305/0100.png'
p3045
aS'0305/0106.png'
p3046
aS'0305/0110.png'
p3047
aS'0305/0116.png'
p3048
aS'0305/0120.png'
p3049
aS'0305/0126.png'
p3050
aS'0305/0130.png'
p3051
aS'0305/0136.png'
p3052
aS'0305/0140.png'
p3053
aS'0305/0146.png'
p3054
aS'0305/0150.png'
p3055
aS'0305/0156.png'
p3056
aS'0305/0160.png'
p3057
aS'0305/0166.png'
p3058
aS'0305/0170.png'
p3059
aS'0305/0176.png'
p3060
aS'0305/0180.png'
p3061
aS'0305/0186.png'
p3062
aS'0305/0190.png'
p3063
aS'0305/0196.png'
p3064
aS'0305/0200.png'
p3065
aS'0305/0206.png'
p3066
aS'0305/0210.png'
p3067
aS'0305/0216.png'
p3068
aS'0305/0220.png'
p3069
aS'0305/0226.png'
p3070
aS'0305/0230.png'
p3071
aS'0305/0236.png'
p3072
aS'0305/0240.png'
p3073
aS'0305/0246.png'
p3074
aS'0305/0250.png'
p3075
aS'0305/0256.png'
p3076
aS'0305/0260.png'
p3077
aS'0305/0266.png'
p3078
aS'0305/0270.png'
p3079
aS'0305/0276.png'
p3080
aS'0305/0280.png'
p3081
aS'0305/0286.png'
p3082
aS'0305/0290.png'
p3083
aS'0305/0296.png'
p3084
aS'0305/0300.png'
p3085
aS'0305/0306.png'
p3086
aS'0305/0310.png'
p3087
aS'0305/0316.png'
p3088
aS'0305/0320.png'
p3089
aS'0305/0326.png'
p3090
aS'0305/0330.png'
p3091
aS'0305/0336.png'
p3092
aS'0305/0340.png'
p3093
aa(lp3094
S'0306/0001.png'
p3095
aS'0306/0002.png'
p3096
aS'0306/0003.png'
p3097
aS'0306/0004.png'
p3098
aS'0306/0005.png'
p3099
aS'0306/0006.png'
p3100
aS'0306/0007.png'
p3101
aS'0306/0008.png'
p3102
aS'0306/0009.png'
p3103
aS'0306/0010.png'
p3104
aS'0306/0011.png'
p3105
aS'0306/0012.png'
p3106
aS'0306/0013.png'
p3107
aS'0306/0014.png'
p3108
aS'0306/0015.png'
p3109
aS'0306/0016.png'
p3110
aS'0306/0017.png'
p3111
aS'0306/0018.png'
p3112
aS'0306/0019.png'
p3113
aS'0306/0020.png'
p3114
aS'0306/0021.png'
p3115
aS'0306/0022.png'
p3116
aS'0306/0023.png'
p3117
aS'0306/0024.png'
p3118
aS'0306/0025.png'
p3119
aS'0306/0026.png'
p3120
aS'0306/0044.png'
p3121
aS'0306/0045.png'
p3122
aS'0306/0046.png'
p3123
aS'0306/0047.png'
p3124
aS'0306/0048.png'
p3125
aS'0306/0049.png'
p3126
aa(lp3127
S'0307/0016.png'
p3128
aS'0307/0021.png'
p3129
aS'0307/0026.png'
p3130
aS'0307/0031.png'
p3131
aS'0307/0036.png'
p3132
aS'0307/0041.png'
p3133
aS'0307/0046.png'
p3134
aS'0307/0051.png'
p3135
aS'0307/0056.png'
p3136
aS'0307/0061.png'
p3137
aS'0307/0066.png'
p3138
aS'0307/0071.png'
p3139
aS'0307/0076.png'
p3140
aS'0307/0081.png'
p3141
aS'0307/0086.png'
p3142
aS'0307/0091.png'
p3143
aS'0307/0096.png'
p3144
aS'0307/0101.png'
p3145
aS'0307/0106.png'
p3146
aS'0307/0111.png'
p3147
aS'0307/0116.png'
p3148
aS'0307/0121.png'
p3149
aS'0307/0126.png'
p3150
aS'0307/0131.png'
p3151
aS'0307/0136.png'
p3152
aS'0307/0141.png'
p3153
aS'0307/0146.png'
p3154
aS'0307/0151.png'
p3155
aS'0307/0156.png'
p3156
aS'0307/0461.png'
p3157
aS'0307/0466.png'
p3158
aS'0307/0471.png'
p3159
aS'0307/0476.png'
p3160
aS'0307/0481.png'
p3161
aS'0307/0486.png'
p3162
aS'0307/0491.png'
p3163
aS'0307/0496.png'
p3164
aS'0307/0501.png'
p3165
aS'0307/0506.png'
p3166
aS'0307/0511.png'
p3167
aS'0307/0516.png'
p3168
aS'0307/0521.png'
p3169
aS'0307/0526.png'
p3170
aS'0307/0531.png'
p3171
aS'0307/0536.png'
p3172
aS'0307/0541.png'
p3173
aS'0307/0546.png'
p3174
aS'0307/0551.png'
p3175
aS'0307/0556.png'
p3176
aS'0307/0561.png'
p3177
aS'0307/0566.png'
p3178
aS'0307/0571.png'
p3179
aS'0307/0576.png'
p3180
aS'0307/0581.png'
p3181
aS'0307/0586.png'
p3182
aS'0307/0591.png'
p3183
aS'0307/0601.png'
p3184
aS'0307/0611.png'
p3185
aa(lp3186
S'0308/0014.png'
p3187
aS'0308/0017.png'
p3188
aS'0308/0019.png'
p3189
aS'0308/0021.png'
p3190
aS'0308/0024.png'
p3191
aS'0308/0027.png'
p3192
aS'0308/0029.png'
p3193
aS'0308/0031.png'
p3194
aS'0308/0034.png'
p3195
aS'0308/0037.png'
p3196
aS'0308/0039.png'
p3197
aS'0308/0041.png'
p3198
aS'0308/0044.png'
p3199
aS'0308/0047.png'
p3200
aS'0308/0049.png'
p3201
aS'0308/0051.png'
p3202
aS'0308/0054.png'
p3203
aS'0308/0057.png'
p3204
aS'0308/0059.png'
p3205
aS'0308/0061.png'
p3206
aS'0308/0064.png'
p3207
aS'0308/0067.png'
p3208
aS'0308/0069.png'
p3209
aS'0308/0071.png'
p3210
aS'0308/0074.png'
p3211
aS'0308/0077.png'
p3212
aS'0308/0079.png'
p3213
aS'0308/0081.png'
p3214
aS'0308/0084.png'
p3215
aS'0308/0087.png'
p3216
aS'0308/0089.png'
p3217
aS'0308/0091.png'
p3218
aS'0308/0094.png'
p3219
aS'0308/0097.png'
p3220
aS'0308/0099.png'
p3221
aS'0308/0100.png'
p3222
aa(lp3223
S'0309/0001.png'
p3224
aS'0309/0006.png'
p3225
aS'0309/0011.png'
p3226
aS'0309/0016.png'
p3227
aS'0309/0021.png'
p3228
aS'0309/0026.png'
p3229
aS'0309/0031.png'
p3230
aS'0309/0036.png'
p3231
aS'0309/0045.png'
p3232
aS'0309/0051.png'
p3233
aS'0309/0056.png'
p3234
aS'0309/0066.png'
p3235
aS'0309/0076.png'
p3236
aS'0309/0086.png'
p3237
aS'0309/0096.png'
p3238
aS'0309/0101.png'
p3239
aS'0309/0111.png'
p3240
aS'0309/0121.png'
p3241
aS'0309/0131.png'
p3242
aS'0309/0141.png'
p3243
aS'0309/0151.png'
p3244
aS'0309/0161.png'
p3245
aS'0309/0171.png'
p3246
aS'0309/0216.png'
p3247
aS'0309/0256.png'
p3248
aS'0309/0296.png'
p3249
aS'0309/0336.png'
p3250
aa(lp3251
S'0310/0044.png'
p3252
aS'0310/0045.png'
p3253
aS'0310/0047.png'
p3254
aS'0310/0051.png'
p3255
aS'0310/0054.png'
p3256
aS'0310/0055.png'
p3257
aS'0310/0057.png'
p3258
aS'0310/0061.png'
p3259
aS'0310/0064.png'
p3260
aS'0310/0065.png'
p3261
aS'0310/0067.png'
p3262
aS'0310/0071.png'
p3263
aS'0310/0074.png'
p3264
aS'0310/0075.png'
p3265
aS'0310/0077.png'
p3266
aS'0310/0081.png'
p3267
aS'0310/0084.png'
p3268
aS'0310/0085.png'
p3269
aS'0310/0087.png'
p3270
aS'0310/0091.png'
p3271
aS'0310/0094.png'
p3272
aS'0310/0095.png'
p3273
aS'0310/0097.png'
p3274
aS'0310/0101.png'
p3275
aS'0310/0104.png'
p3276
aS'0310/0105.png'
p3277
aS'0310/0107.png'
p3278
aS'0310/0111.png'
p3279
aS'0310/0114.png'
p3280
aS'0310/0115.png'
p3281
aS'0310/0117.png'
p3282
aS'0310/0119.png'
p3283
aa(lp3284
S'0311/0011.png'
p3285
aS'0311/0021.png'
p3286
aS'0311/0031.png'
p3287
aS'0311/0041.png'
p3288
aS'0311/0051.png'
p3289
aS'0311/0061.png'
p3290
aS'0311/0071.png'
p3291
aS'0311/0081.png'
p3292
aS'0311/0091.png'
p3293
aS'0311/0101.png'
p3294
aS'0311/0111.png'
p3295
aS'0311/0121.png'
p3296
aS'0311/0131.png'
p3297
aS'0311/0136.png'
p3298
aS'0311/0141.png'
p3299
aS'0311/0146.png'
p3300
aS'0311/0151.png'
p3301
aS'0311/0156.png'
p3302
aS'0311/0161.png'
p3303
aS'0311/0166.png'
p3304
aS'0311/0171.png'
p3305
aS'0311/0176.png'
p3306
aS'0311/0181.png'
p3307
aS'0311/0186.png'
p3308
aS'0311/0191.png'
p3309
aS'0311/0196.png'
p3310
aS'0311/0201.png'
p3311
aS'0311/0206.png'
p3312
aS'0311/0211.png'
p3313
aS'0311/0216.png'
p3314
aS'0311/0221.png'
p3315
aS'0311/0226.png'
p3316
aS'0311/0231.png'
p3317
aS'0311/0236.png'
p3318
aS'0311/0241.png'
p3319
aS'0311/0246.png'
p3320
aS'0311/0251.png'
p3321
aS'0311/0261.png'
p3322
aS'0311/0271.png'
p3323
aS'0311/0281.png'
p3324
aS'0311/0291.png'
p3325
aa(lp3326
S'0312/0040.png'
p3327
aS'0312/0045.png'
p3328
aS'0312/0048.png'
p3329
aS'0312/0055.png'
p3330
aS'0312/0058.png'
p3331
aS'0312/0065.png'
p3332
aS'0312/0068.png'
p3333
aS'0312/0070.png'
p3334
aS'0312/0075.png'
p3335
aS'0312/0078.png'
p3336
aS'0312/0080.png'
p3337
aS'0312/0085.png'
p3338
aS'0312/0088.png'
p3339
aS'0312/0090.png'
p3340
aS'0312/0095.png'
p3341
aS'0312/0098.png'
p3342
aS'0312/0100.png'
p3343
aS'0312/0105.png'
p3344
aS'0312/0108.png'
p3345
aS'0312/0110.png'
p3346
aS'0312/0115.png'
p3347
aS'0312/0118.png'
p3348
aS'0312/0120.png'
p3349
aS'0312/0125.png'
p3350
aS'0312/0130.png'
p3351
aS'0312/0135.png'
p3352
aS'0312/0138.png'
p3353
aS'0312/0140.png'
p3354
aS'0312/0145.png'
p3355
aS'0312/0148.png'
p3356
aS'0312/0150.png'
p3357
aS'0312/0155.png'
p3358
aS'0312/0158.png'
p3359
aS'0312/0160.png'
p3360
aS'0312/0170.png'
p3361
aS'0312/0175.png'
p3362
aS'0312/0180.png'
p3363
aS'0312/0185.png'
p3364
aS'0312/0190.png'
p3365
aS'0312/0195.png'
p3366
aS'0312/0200.png'
p3367
aS'0312/0205.png'
p3368
aS'0312/0210.png'
p3369
aS'0312/0215.png'
p3370
aS'0312/0220.png'
p3371
aa(lp3372
S'0313/0045.png'
p3373
aS'0313/0051.png'
p3374
aS'0313/0056.png'
p3375
aS'0313/0066.png'
p3376
aS'0313/0076.png'
p3377
aS'0313/0086.png'
p3378
aS'0313/0096.png'
p3379
aS'0313/0101.png'
p3380
aS'0313/0111.png'
p3381
aS'0313/0121.png'
p3382
aS'0313/0131.png'
p3383
aS'0313/0141.png'
p3384
aS'0313/0151.png'
p3385
aS'0313/0161.png'
p3386
aS'0313/0171.png'
p3387
aS'0313/0216.png'
p3388
aS'0313/0256.png'
p3389
aS'0313/0296.png'
p3390
aS'0313/0336.png'
p3391
aa(lp3392
S'0314/0001.png'
p3393
aS'0314/0004.png'
p3394
aS'0314/0005.png'
p3395
aS'0314/0006.png'
p3396
aS'0314/0007.png'
p3397
aS'0314/0014.png'
p3398
aS'0314/0021.png'
p3399
aS'0314/0037.png'
p3400
aS'0314/0044.png'
p3401
aS'0314/0050.png'
p3402
aS'0314/0054.png'
p3403
aS'0314/0057.png'
p3404
aS'0314/0064.png'
p3405
aS'0314/0067.png'
p3406
aS'0314/0071.png'
p3407
aS'0314/0072.png'
p3408
aS'0314/0073.png'
p3409
aS'0314/0074.png'
p3410
aS'0314/0077.png'
p3411
aS'0314/0081.png'
p3412
aS'0314/0084.png'
p3413
aS'0314/0087.png'
p3414
aS'0314/0090.png'
p3415
aS'0314/0091.png'
p3416
aS'0314/0094.png'
p3417
aS'0314/0095.png'
p3418
aS'0314/0098.png'
p3419
aa(lp3420
S'0315/0007.png'
p3421
aS'0315/0014.png'
p3422
aS'0315/0017.png'
p3423
aS'0315/0021.png'
p3424
aS'0315/0024.png'
p3425
aS'0315/0027.png'
p3426
aS'0315/0031.png'
p3427
aS'0315/0034.png'
p3428
aS'0315/0037.png'
p3429
aS'0315/0041.png'
p3430
aS'0315/0044.png'
p3431
aS'0315/0047.png'
p3432
aS'0315/0051.png'
p3433
aS'0315/0054.png'
p3434
aS'0315/0057.png'
p3435
aS'0315/0061.png'
p3436
aS'0315/0064.png'
p3437
aS'0315/0067.png'
p3438
aS'0315/0074.png'
p3439
aS'0315/0077.png'
p3440
aS'0315/0081.png'
p3441
aS'0315/0084.png'
p3442
aS'0315/0087.png'
p3443
aS'0315/0091.png'
p3444
aS'0315/0094.png'
p3445
aS'0315/0097.png'
p3446
aS'0315/0101.png'
p3447
aS'0315/0104.png'
p3448
aS'0315/0107.png'
p3449
aS'0315/0111.png'
p3450
aS'0315/0114.png'
p3451
aS'0315/0117.png'
p3452
aS'0315/0121.png'
p3453
aS'0315/0124.png'
p3454
aS'0315/0127.png'
p3455
aS'0315/0131.png'
p3456
aS'0315/0134.png'
p3457
aS'0315/0137.png'
p3458
aS'0315/0141.png'
p3459
aa(lp3460
S'0316/0001.png'
p3461
aS'0316/0002.png'
p3462
aS'0316/0003.png'
p3463
aS'0316/0004.png'
p3464
aS'0316/0005.png'
p3465
aS'0316/0006.png'
p3466
aS'0316/0007.png'
p3467
aS'0316/0008.png'
p3468
aS'0316/0009.png'
p3469
aS'0316/0010.png'
p3470
aS'0316/0011.png'
p3471
aS'0316/0012.png'
p3472
aS'0316/0013.png'
p3473
aS'0316/0014.png'
p3474
aS'0316/0015.png'
p3475
aS'0316/0016.png'
p3476
aS'0316/0017.png'
p3477
aS'0316/0018.png'
p3478
aS'0316/0019.png'
p3479
aS'0316/0020.png'
p3480
aS'0316/0021.png'
p3481
aS'0316/0022.png'
p3482
aS'0316/0023.png'
p3483
aS'0316/0024.png'
p3484
aS'0316/0025.png'
p3485
aS'0316/0026.png'
p3486
aS'0316/0027.png'
p3487
aS'0316/0028.png'
p3488
aS'0316/0029.png'
p3489
aS'0316/0030.png'
p3490
aS'0316/0031.png'
p3491
aa(lp3492
S'0317/0004.png'
p3493
aS'0317/0005.png'
p3494
aS'0317/0006.png'
p3495
aS'0317/0007.png'
p3496
aS'0317/0008.png'
p3497
aS'0317/0009.png'
p3498
aS'0317/0010.png'
p3499
aS'0317/0011.png'
p3500
aS'0317/0012.png'
p3501
aS'0317/0013.png'
p3502
aS'0317/0014.png'
p3503
aS'0317/0015.png'
p3504
aS'0317/0016.png'
p3505
aS'0317/0017.png'
p3506
aS'0317/0018.png'
p3507
aS'0317/0019.png'
p3508
aS'0317/0020.png'
p3509
aS'0317/0021.png'
p3510
aS'0317/0022.png'
p3511
aS'0317/0023.png'
p3512
aS'0317/0024.png'
p3513
aS'0317/0025.png'
p3514
aS'0317/0026.png'
p3515
aS'0317/0027.png'
p3516
aS'0317/0028.png'
p3517
aS'0317/0029.png'
p3518
aS'0317/0030.png'
p3519
aS'0317/0031.png'
p3520
aS'0317/0032.png'
p3521
aS'0317/0033.png'
p3522
aS'0317/0034.png'
p3523
aS'0317/0035.png'
p3524
aS'0317/0036.png'
p3525
aS'0317/0037.png'
p3526
aS'0317/0038.png'
p3527
aS'0317/0039.png'
p3528
aS'0317/0040.png'
p3529
aS'0317/0041.png'
p3530
aS'0317/0042.png'
p3531
aS'0317/0043.png'
p3532
aS'0317/0044.png'
p3533
aS'0317/0045.png'
p3534
aS'0317/0046.png'
p3535
aS'0317/0047.png'
p3536
aS'0317/0048.png'
p3537
aS'0317/0049.png'
p3538
aS'0317/0050.png'
p3539
aS'0317/0051.png'
p3540
aS'0317/0052.png'
p3541
aS'0317/0053.png'
p3542
aS'0317/0054.png'
p3543
aS'0317/0055.png'
p3544
aS'0317/0056.png'
p3545
aS'0317/0057.png'
p3546
aS'0317/0065.png'
p3547
aa(lp3548
S'0318/0006.png'
p3549
aS'0318/0011.png'
p3550
aS'0318/0016.png'
p3551
aS'0318/0021.png'
p3552
aS'0318/0026.png'
p3553
aS'0318/0031.png'
p3554
aS'0318/0036.png'
p3555
aS'0318/0041.png'
p3556
aS'0318/0046.png'
p3557
aS'0318/0051.png'
p3558
aS'0318/0056.png'
p3559
aS'0318/0061.png'
p3560
aS'0318/0066.png'
p3561
aS'0318/0071.png'
p3562
aS'0318/0076.png'
p3563
aS'0318/0081.png'
p3564
aS'0318/0086.png'
p3565
aS'0318/0091.png'
p3566
aS'0318/0096.png'
p3567
aS'0318/0101.png'
p3568
aS'0318/0106.png'
p3569
aS'0318/0110.png'
p3570
aa(lp3571
S'0319/0005.png'
p3572
aS'0319/0007.png'
p3573
aS'0319/0009.png'
p3574
aS'0319/0011.png'
p3575
aS'0319/0013.png'
p3576
aS'0319/0015.png'
p3577
aS'0319/0017.png'
p3578
aS'0319/0019.png'
p3579
aS'0319/0021.png'
p3580
aS'0319/0023.png'
p3581
aS'0319/0025.png'
p3582
aS'0319/0027.png'
p3583
aS'0319/0029.png'
p3584
aS'0319/0031.png'
p3585
aS'0319/0033.png'
p3586
aS'0319/0035.png'
p3587
aS'0319/0037.png'
p3588
aS'0319/0039.png'
p3589
aS'0319/0041.png'
p3590
aS'0319/0043.png'
p3591
aS'0319/0045.png'
p3592
aS'0319/0047.png'
p3593
aS'0319/0049.png'
p3594
aS'0319/0051.png'
p3595
aS'0319/0053.png'
p3596
aS'0319/0055.png'
p3597
aS'0319/0057.png'
p3598
aS'0319/0059.png'
p3599
aS'0319/0061.png'
p3600
aS'0319/0063.png'
p3601
aS'0319/0065.png'
p3602
aS'0319/0067.png'
p3603
aS'0319/0069.png'
p3604
aS'0319/0071.png'
p3605
aS'0319/0073.png'
p3606
aS'0319/0075.png'
p3607
aS'0319/0077.png'
p3608
aS'0319/0079.png'
p3609
aS'0319/0081.png'
p3610
aS'0319/0083.png'
p3611
aS'0319/0085.png'
p3612
aS'0319/0087.png'
p3613
aS'0319/0089.png'
p3614
aS'0319/0091.png'
p3615
aS'0319/0093.png'
p3616
aS'0319/0095.png'
p3617
aS'0319/0097.png'
p3618
aS'0319/0099.png'
p3619
aS'0319/0101.png'
p3620
aa(lp3621
S'0321/0002.png'
p3622
aS'0321/0004.png'
p3623
aS'0321/0014.png'
p3624
aS'0321/0017.png'
p3625
aS'0321/0022.png'
p3626
aS'0321/0036.png'
p3627
aS'0321/0038.png'
p3628
aS'0321/0080.png'
p3629
aS'0321/0082.png'
p3630
aS'0321/0091.png'
p3631
aS'0321/0121.png'
p3632
aS'0321/0191.png'
p3633
aS'0321/0201.png'
p3634
aS'0321/0211.png'
p3635
aS'0321/0221.png'
p3636
aS'0321/0231.png'
p3637
aS'0321/0241.png'
p3638
aS'0321/0256.png'
p3639
aS'0321/0266.png'
p3640
aS'0321/0281.png'
p3641
aS'0321/0291.png'
p3642
aS'0321/0301.png'
p3643
aS'0321/0311.png'
p3644
aS'0321/0321.png'
p3645
aS'0321/0331.png'
p3646
aa(lp3647
S'0322/0008.png'
p3648
aS'0322/0011.png'
p3649
aS'0322/0014.png'
p3650
aS'0322/0018.png'
p3651
aS'0322/0021.png'
p3652
aS'0322/0024.png'
p3653
aS'0322/0028.png'
p3654
aS'0322/0031.png'
p3655
aS'0322/0034.png'
p3656
aS'0322/0038.png'
p3657
aS'0322/0041.png'
p3658
aS'0322/0044.png'
p3659
aS'0322/0048.png'
p3660
aS'0322/0051.png'
p3661
aS'0322/0058.png'
p3662
aS'0322/0061.png'
p3663
aS'0322/0064.png'
p3664
aS'0322/0068.png'
p3665
aS'0322/0071.png'
p3666
aS'0322/0074.png'
p3667
aS'0322/0078.png'
p3668
aS'0322/0081.png'
p3669
aS'0322/0084.png'
p3670
aS'0322/0088.png'
p3671
aS'0322/0091.png'
p3672
aS'0322/0094.png'
p3673
aS'0322/0098.png'
p3674
aS'0322/0101.png'
p3675
aS'0322/0104.png'
p3676
aS'0322/0108.png'
p3677
aS'0322/0111.png'
p3678
aS'0322/0114.png'
p3679
aS'0322/0118.png'
p3680
aS'0322/0121.png'
p3681
aS'0322/0124.png'
p3682
aS'0322/0128.png'
p3683
aa(lp3684
S'0323/0051.png'
p3685
aS'0323/0056.png'
p3686
aS'0323/0061.png'
p3687
aS'0323/0066.png'
p3688
aS'0323/0071.png'
p3689
aS'0323/0076.png'
p3690
aS'0323/0081.png'
p3691
aS'0323/0086.png'
p3692
aS'0323/0091.png'
p3693
aS'0323/0096.png'
p3694
aS'0323/0101.png'
p3695
aS'0323/0106.png'
p3696
aS'0323/0111.png'
p3697
aS'0323/0116.png'
p3698
aS'0323/0121.png'
p3699
aS'0323/0181.png'
p3700
aS'0323/0186.png'
p3701
aS'0323/0191.png'
p3702
aS'0323/0196.png'
p3703
aS'0323/0201.png'
p3704
aS'0323/0211.png'
p3705
aS'0323/0216.png'
p3706
aS'0323/0221.png'
p3707
aS'0323/0226.png'
p3708
aS'0323/0231.png'
p3709
aS'0323/0236.png'
p3710
aS'0323/0241.png'
p3711
aS'0323/0246.png'
p3712
aS'0323/0251.png'
p3713
aa(lp3714
S'0327/0011.png'
p3715
aS'0327/0016.png'
p3716
aS'0327/0021.png'
p3717
aS'0327/0026.png'
p3718
aS'0327/0031.png'
p3719
aS'0327/0036.png'
p3720
aS'0327/0041.png'
p3721
aS'0327/0046.png'
p3722
aS'0327/0051.png'
p3723
aS'0327/0056.png'
p3724
aS'0327/0061.png'
p3725
aS'0327/0066.png'
p3726
aS'0327/0071.png'
p3727
aS'0327/0076.png'
p3728
aS'0327/0081.png'
p3729
aS'0327/0086.png'
p3730
aS'0327/0091.png'
p3731
aS'0327/0096.png'
p3732
aS'0327/0101.png'
p3733
aS'0327/0106.png'
p3734
aS'0327/0111.png'
p3735
aS'0327/0116.png'
p3736
aS'0327/0121.png'
p3737
aS'0327/0126.png'
p3738
aS'0327/0131.png'
p3739
aS'0327/0136.png'
p3740
aS'0327/0141.png'
p3741
aS'0327/0146.png'
p3742
aS'0327/0151.png'
p3743
aS'0327/0156.png'
p3744
aS'0327/0161.png'
p3745
aS'0327/0166.png'
p3746
aS'0327/0171.png'
p3747
aS'0327/0176.png'
p3748
aS'0327/0181.png'
p3749
aS'0327/0186.png'
p3750
aS'0327/0191.png'
p3751
aS'0327/0196.png'
p3752
aa(lp3753
S'0328/0001.png'
p3754
aS'0328/0002.png'
p3755
aS'0328/0003.png'
p3756
aS'0328/0004.png'
p3757
aS'0328/0005.png'
p3758
aS'0328/0006.png'
p3759
aS'0328/0007.png'
p3760
aS'0328/0008.png'
p3761
aS'0328/0009.png'
p3762
aS'0328/0010.png'
p3763
aS'0328/0011.png'
p3764
aS'0328/0012.png'
p3765
aS'0328/0013.png'
p3766
aS'0328/0014.png'
p3767
aS'0328/0015.png'
p3768
aS'0328/0016.png'
p3769
aS'0328/0017.png'
p3770
aS'0328/0018.png'
p3771
aa(lp3772
S'0330/0001.png'
p3773
aS'0330/0006.png'
p3774
aS'0330/0011.png'
p3775
aS'0330/0016.png'
p3776
aS'0330/0021.png'
p3777
aS'0330/0026.png'
p3778
aS'0330/0031.png'
p3779
aS'0330/0036.png'
p3780
aS'0330/0041.png'
p3781
aS'0330/0046.png'
p3782
aS'0330/0051.png'
p3783
aS'0330/0056.png'
p3784
aS'0330/0061.png'
p3785
aS'0330/0066.png'
p3786
aS'0330/0071.png'
p3787
aS'0330/0076.png'
p3788
aS'0330/0081.png'
p3789
aS'0330/0086.png'
p3790
aS'0330/0091.png'
p3791
aS'0330/0096.png'
p3792
aS'0330/0101.png'
p3793
aS'0330/0106.png'
p3794
aS'0330/0111.png'
p3795
aS'0330/0116.png'
p3796
aS'0330/0121.png'
p3797
aS'0330/0126.png'
p3798
aS'0330/0131.png'
p3799
aS'0330/0136.png'
p3800
aS'0330/0141.png'
p3801
aS'0330/0146.png'
p3802
aS'0330/0151.png'
p3803
aS'0330/0156.png'
p3804
aS'0330/0161.png'
p3805
aS'0330/0166.png'
p3806
aS'0330/0171.png'
p3807
aS'0330/0176.png'
p3808
aS'0330/0181.png'
p3809
aS'0330/0186.png'
p3810
aS'0330/0191.png'
p3811
aS'0330/0196.png'
p3812
aS'0330/0201.png'
p3813
aS'0330/0206.png'
p3814
aS'0330/0211.png'
p3815
aS'0330/0216.png'
p3816
aS'0330/0221.png'
p3817
aS'0330/0226.png'
p3818
aS'0330/0231.png'
p3819
aS'0330/0236.png'
p3820
aS'0330/0241.png'
p3821
aS'0330/0246.png'
p3822
aS'0330/0251.png'
p3823
aS'0330/0256.png'
p3824
aS'0330/0261.png'
p3825
aS'0330/0266.png'
p3826
aS'0330/0271.png'
p3827
aS'0330/0276.png'
p3828
aS'0330/0281.png'
p3829
aa(lp3830
S'0331/0006.png'
p3831
aS'0331/0011.png'
p3832
aS'0331/0016.png'
p3833
aS'0331/0021.png'
p3834
aS'0331/0026.png'
p3835
aS'0331/0031.png'
p3836
aS'0331/0036.png'
p3837
aS'0331/0041.png'
p3838
aS'0331/0046.png'
p3839
aS'0331/0051.png'
p3840
aS'0331/0056.png'
p3841
aS'0331/0061.png'
p3842
aS'0331/0066.png'
p3843
aS'0331/0071.png'
p3844
aS'0331/0076.png'
p3845
aS'0331/0081.png'
p3846
aS'0331/0086.png'
p3847
aS'0331/0091.png'
p3848
aS'0331/0096.png'
p3849
aS'0331/0101.png'
p3850
aS'0331/0106.png'
p3851
aS'0331/0111.png'
p3852
aS'0331/0116.png'
p3853
aS'0331/0121.png'
p3854
aS'0331/0126.png'
p3855
aS'0331/0131.png'
p3856
aS'0331/0136.png'
p3857
aS'0331/0141.png'
p3858
aS'0331/0146.png'
p3859
aS'0331/0151.png'
p3860
aS'0331/0156.png'
p3861
aa(lp3862
S'0334/0001.png'
p3863
aS'0334/0004.png'
p3864
aS'0334/0007.png'
p3865
aS'0334/0011.png'
p3866
aS'0334/0014.png'
p3867
aS'0334/0017.png'
p3868
aS'0334/0021.png'
p3869
aS'0334/0024.png'
p3870
aS'0334/0027.png'
p3871
aS'0334/0031.png'
p3872
aS'0334/0034.png'
p3873
aS'0334/0037.png'
p3874
aS'0334/0041.png'
p3875
aS'0334/0044.png'
p3876
aS'0334/0047.png'
p3877
aS'0334/0051.png'
p3878
aS'0334/0054.png'
p3879
aS'0334/0057.png'
p3880
aS'0334/0061.png'
p3881
aS'0334/0064.png'
p3882
aS'0334/0067.png'
p3883
aS'0334/0071.png'
p3884
aS'0334/0074.png'
p3885
aS'0334/0077.png'
p3886
aS'0334/0081.png'
p3887
aa(lp3888
S'0336/0299.png'
p3889
aS'0336/0301.png'
p3890
aS'0336/0306.png'
p3891
aS'0336/0309.png'
p3892
aS'0336/0311.png'
p3893
aS'0336/0316.png'
p3894
aS'0336/0319.png'
p3895
aS'0336/0321.png'
p3896
aS'0336/0326.png'
p3897
aS'0336/0392.png'
p3898
aS'0336/0397.png'
p3899
aS'0336/0402.png'
p3900
aS'0336/0407.png'
p3901
aS'0336/0412.png'
p3902
aS'0336/0417.png'
p3903
aS'0336/0422.png'
p3904
aS'0336/0427.png'
p3905
aS'0336/0432.png'
p3906
aS'0336/0437.png'
p3907
aS'0336/0442.png'
p3908
aS'0336/0447.png'
p3909
aS'0336/0452.png'
p3910
aS'0336/0457.png'
p3911
aa(lp3912
S'0337/0001.png'
p3913
aS'0337/0002.png'
p3914
aS'0337/0003.png'
p3915
aS'0337/0004.png'
p3916
aS'0337/0005.png'
p3917
aS'0337/0006.png'
p3918
aS'0337/0007.png'
p3919
aS'0337/0008.png'
p3920
aS'0337/0009.png'
p3921
aS'0337/0010.png'
p3922
aS'0337/0011.png'
p3923
aS'0337/0012.png'
p3924
aS'0337/0013.png'
p3925
aS'0337/0014.png'
p3926
aS'0337/0015.png'
p3927
aS'0337/0016.png'
p3928
aS'0337/0017.png'
p3929
aS'0337/0018.png'
p3930
aS'0337/0019.png'
p3931
aS'0337/0020.png'
p3932
aS'0337/0021.png'
p3933
aS'0337/0022.png'
p3934
aS'0337/0023.png'
p3935
aS'0337/0024.png'
p3936
aS'0337/0025.png'
p3937
aS'0337/0026.png'
p3938
aa(lp3939
S'0338/0001.png'
p3940
aS'0338/0002.png'
p3941
aS'0338/0003.png'
p3942
aS'0338/0004.png'
p3943
aS'0338/0005.png'
p3944
aS'0338/0006.png'
p3945
aS'0338/0007.png'
p3946
aS'0338/0008.png'
p3947
aS'0338/0009.png'
p3948
aS'0338/0010.png'
p3949
aS'0338/0011.png'
p3950
aS'0338/0012.png'
p3951
aS'0338/0013.png'
p3952
aS'0338/0014.png'
p3953
aS'0338/0015.png'
p3954
aS'0338/0016.png'
p3955
aS'0338/0017.png'
p3956
aS'0338/0018.png'
p3957
aS'0338/0019.png'
p3958
aS'0338/0020.png'
p3959
aS'0338/0021.png'
p3960
aS'0338/0022.png'
p3961
aS'0338/0023.png'
p3962
aS'0338/0024.png'
p3963
aS'0338/0025.png'
p3964
aS'0338/0026.png'
p3965
aS'0338/0027.png'
p3966
aS'0338/0028.png'
p3967
aS'0338/0029.png'
p3968
aS'0338/0030.png'
p3969
aS'0338/0031.png'
p3970
aS'0338/0032.png'
p3971
aS'0338/0033.png'
p3972
aS'0338/0034.png'
p3973
aS'0338/0035.png'
p3974
aS'0338/0036.png'
p3975
aS'0338/0037.png'
p3976
aS'0338/0038.png'
p3977
aS'0338/0039.png'
p3978
aS'0338/0040.png'
p3979
aS'0338/0041.png'
p3980
aS'0338/0042.png'
p3981
aa(lp3982
S'0339/0021.png'
p3983
aS'0339/0026.png'
p3984
aS'0339/0031.png'
p3985
aS'0339/0036.png'
p3986
aS'0339/0041.png'
p3987
aS'0339/0046.png'
p3988
aS'0339/0051.png'
p3989
aS'0339/0056.png'
p3990
aS'0339/0061.png'
p3991
aS'0339/0066.png'
p3992
aS'0339/0071.png'
p3993
aS'0339/0074.png'
p3994
aS'0339/0076.png'
p3995
aS'0339/0081.png'
p3996
aS'0339/0091.png'
p3997
aS'0339/0096.png'
p3998
aS'0339/0101.png'
p3999
aS'0339/0106.png'
p4000
aa(lp4001
S'0340/0001.png'
p4002
aS'0340/0004.png'
p4003
aS'0340/0008.png'
p4004
aS'0340/0011.png'
p4005
aS'0340/0014.png'
p4006
aS'0340/0018.png'
p4007
aS'0340/0021.png'
p4008
aS'0340/0024.png'
p4009
aS'0340/0028.png'
p4010
aS'0340/0031.png'
p4011
aS'0340/0034.png'
p4012
aS'0340/0038.png'
p4013
aS'0340/0041.png'
p4014
aS'0340/0044.png'
p4015
aS'0340/0048.png'
p4016
aS'0340/0051.png'
p4017
aS'0340/0054.png'
p4018
aS'0340/0058.png'
p4019
aS'0340/0061.png'
p4020
aS'0340/0064.png'
p4021
aa(lp4022
S'0341/0001.png'
p4023
aS'0341/0002.png'
p4024
aS'0341/0003.png'
p4025
aS'0341/0004.png'
p4026
aS'0341/0005.png'
p4027
aS'0341/0006.png'
p4028
aS'0341/0007.png'
p4029
aS'0341/0008.png'
p4030
aS'0341/0009.png'
p4031
aS'0341/0010.png'
p4032
aS'0341/0011.png'
p4033
aS'0341/0012.png'
p4034
aS'0341/0013.png'
p4035
aS'0341/0014.png'
p4036
aS'0341/0015.png'
p4037
aS'0341/0016.png'
p4038
aS'0341/0017.png'
p4039
aS'0341/0018.png'
p4040
aS'0341/0019.png'
p4041
aS'0341/0020.png'
p4042
aa(lp4043
S'0342/0001.png'
p4044
aS'0342/0002.png'
p4045
aS'0342/0003.png'
p4046
aS'0342/0004.png'
p4047
aS'0342/0005.png'
p4048
aS'0342/0006.png'
p4049
aS'0342/0007.png'
p4050
aS'0342/0008.png'
p4051
aS'0342/0009.png'
p4052
aS'0342/0010.png'
p4053
aS'0342/0011.png'
p4054
aS'0342/0012.png'
p4055
aS'0342/0013.png'
p4056
aS'0342/0014.png'
p4057
aS'0342/0015.png'
p4058
aS'0342/0016.png'
p4059
aS'0342/0017.png'
p4060
aS'0342/0018.png'
p4061
aS'0342/0019.png'
p4062
aS'0342/0020.png'
p4063
aS'0342/0021.png'
p4064
aS'0342/0022.png'
p4065
aS'0342/0023.png'
p4066
aS'0342/0024.png'
p4067
aS'0342/0025.png'
p4068
aS'0342/0026.png'
p4069
aS'0342/0027.png'
p4070
aS'0342/0028.png'
p4071
aS'0342/0029.png'
p4072
aS'0342/0030.png'
p4073
aS'0342/0031.png'
p4074
aS'0342/0032.png'
p4075
aS'0342/0033.png'
p4076
aS'0342/0034.png'
p4077
aS'0342/0035.png'
p4078
aS'0342/0036.png'
p4079
aS'0342/0037.png'
p4080
aS'0342/0038.png'
p4081
aS'0342/0039.png'
p4082
aS'0342/0040.png'
p4083
aS'0342/0041.png'
p4084
aS'0342/0042.png'
p4085
aS'0342/0043.png'
p4086
aa(lp4087
S'0343/0001.png'
p4088
aS'0343/0004.png'
p4089
aS'0343/0007.png'
p4090
aS'0343/0011.png'
p4091
aS'0343/0014.png'
p4092
aS'0343/0017.png'
p4093
aS'0343/0021.png'
p4094
aS'0343/0024.png'
p4095
aS'0343/0027.png'
p4096
aS'0343/0031.png'
p4097
aS'0343/0034.png'
p4098
aS'0343/0037.png'
p4099
aS'0343/0041.png'
p4100
aS'0343/0044.png'
p4101
aS'0343/0047.png'
p4102
aS'0343/0051.png'
p4103
aS'0343/0054.png'
p4104
aS'0343/0057.png'
p4105
aS'0343/0061.png'
p4106
aS'0343/0064.png'
p4107
aS'0343/0067.png'
p4108
aS'0343/0071.png'
p4109
aS'0343/0074.png'
p4110
aS'0343/0077.png'
p4111
aS'0343/0081.png'
p4112
aS'0343/0084.png'
p4113
aa(lp4114
S'0344/0001.png'
p4115
aS'0344/0002.png'
p4116
aS'0344/0003.png'
p4117
aS'0344/0004.png'
p4118
aS'0344/0005.png'
p4119
aS'0344/0006.png'
p4120
aS'0344/0007.png'
p4121
aS'0344/0008.png'
p4122
aS'0344/0009.png'
p4123
aS'0344/0010.png'
p4124
aS'0344/0011.png'
p4125
aS'0344/0012.png'
p4126
aS'0344/0013.png'
p4127
aS'0344/0014.png'
p4128
aS'0344/0015.png'
p4129
aS'0344/0016.png'
p4130
aS'0344/0017.png'
p4131
aS'0344/0018.png'
p4132
aS'0344/0019.png'
p4133
aS'0344/0020.png'
p4134
aS'0344/0021.png'
p4135
aS'0344/0022.png'
p4136
aS'0344/0023.png'
p4137
aS'0344/0024.png'
p4138
aS'0344/0025.png'
p4139
aa(lp4140
S'0345/0003.png'
p4141
aS'0345/0004.png'
p4142
aS'0345/0005.png'
p4143
aS'0345/0006.png'
p4144
aS'0345/0007.png'
p4145
aS'0345/0008.png'
p4146
aS'0345/0009.png'
p4147
aS'0345/0010.png'
p4148
aS'0345/0011.png'
p4149
aS'0345/0012.png'
p4150
aS'0345/0013.png'
p4151
aS'0345/0014.png'
p4152
aS'0345/0015.png'
p4153
aS'0345/0016.png'
p4154
aS'0345/0017.png'
p4155
aS'0345/0018.png'
p4156
aS'0345/0019.png'
p4157
aS'0345/0020.png'
p4158
aS'0345/0021.png'
p4159
aS'0345/0022.png'
p4160
aS'0345/0023.png'
p4161
aS'0345/0024.png'
p4162
aS'0345/0025.png'
p4163
aS'0345/0026.png'
p4164
aS'0345/0027.png'
p4165
aS'0345/0028.png'
p4166
aS'0345/0029.png'
p4167
aS'0345/0030.png'
p4168
aS'0345/0031.png'
p4169
aS'0345/0032.png'
p4170
aS'0345/0033.png'
p4171
aS'0345/0034.png'
p4172
aS'0345/0035.png'
p4173
aS'0345/0036.png'
p4174
aS'0345/0037.png'
p4175
aS'0345/0038.png'
p4176
aS'0345/0039.png'
p4177
aS'0345/0040.png'
p4178
aS'0345/0041.png'
p4179
aS'0345/0042.png'
p4180
aS'0345/0043.png'
p4181
aS'0345/0044.png'
p4182
aS'0345/0045.png'
p4183
aS'0345/0046.png'
p4184
aS'0345/0047.png'
p4185
aS'0345/0048.png'
p4186
aS'0345/0049.png'
p4187
aS'0345/0050.png'
p4188
aS'0345/0051.png'
p4189
aS'0345/0052.png'
p4190
aS'0345/0053.png'
p4191
aS'0345/0054.png'
p4192
aS'0345/0055.png'
p4193
aS'0345/0056.png'
p4194
aS'0345/0057.png'
p4195
aS'0345/0058.png'
p4196
aS'0345/0059.png'
p4197
aS'0345/0060.png'
p4198
aS'0345/0061.png'
p4199
aS'0345/0062.png'
p4200
aS'0345/0063.png'
p4201
aS'0345/0064.png'
p4202
aS'0345/0065.png'
p4203
aS'0345/0066.png'
p4204
aa(lp4205
S'0346/0001.png'
p4206
aS'0346/0002.png'
p4207
aS'0346/0003.png'
p4208
aS'0346/0004.png'
p4209
aS'0346/0005.png'
p4210
aS'0346/0006.png'
p4211
aS'0346/0007.png'
p4212
aS'0346/0008.png'
p4213
aS'0346/0009.png'
p4214
aS'0346/0010.png'
p4215
aS'0346/0011.png'
p4216
aS'0346/0012.png'
p4217
aS'0346/0013.png'
p4218
aS'0346/0014.png'
p4219
aS'0346/0015.png'
p4220
aS'0346/0016.png'
p4221
aS'0346/0017.png'
p4222
aS'0346/0018.png'
p4223
aS'0346/0019.png'
p4224
aS'0346/0020.png'
p4225
aS'0346/0021.png'
p4226
aS'0346/0022.png'
p4227
aS'0346/0023.png'
p4228
aS'0346/0024.png'
p4229
aS'0346/0025.png'
p4230
aS'0346/0026.png'
p4231
aS'0346/0027.png'
p4232
aS'0346/0028.png'
p4233
aS'0346/0029.png'
p4234
aS'0346/0030.png'
p4235
aS'0346/0031.png'
p4236
aS'0346/0032.png'
p4237
aS'0346/0033.png'
p4238
aS'0346/0034.png'
p4239
aS'0346/0035.png'
p4240
aS'0346/0036.png'
p4241
aS'0346/0037.png'
p4242
aS'0346/0038.png'
p4243
aS'0346/0039.png'
p4244
aS'0346/0040.png'
p4245
aS'0346/0041.png'
p4246
aS'0346/0042.png'
p4247
aS'0346/0043.png'
p4248
aS'0346/0044.png'
p4249
aS'0346/0045.png'
p4250
aS'0346/0046.png'
p4251
aS'0346/0047.png'
p4252
aS'0346/0048.png'
p4253
aS'0346/0049.png'
p4254
aS'0346/0050.png'
p4255
aS'0346/0051.png'
p4256
aS'0346/0052.png'
p4257
aS'0346/0053.png'
p4258
aS'0346/0054.png'
p4259
aS'0346/0055.png'
p4260
aS'0346/0056.png'
p4261
aS'0346/0057.png'
p4262
aS'0346/0058.png'
p4263
aS'0346/0059.png'
p4264
aS'0346/0060.png'
p4265
aS'0346/0061.png'
p4266
aa(lp4267
S'0348/0002.png'
p4268
aS'0348/0003.png'
p4269
aS'0348/0004.png'
p4270
aS'0348/0005.png'
p4271
aS'0348/0006.png'
p4272
aS'0348/0007.png'
p4273
aS'0348/0008.png'
p4274
aS'0348/0009.png'
p4275
aS'0348/0010.png'
p4276
aS'0348/0011.png'
p4277
aS'0348/0012.png'
p4278
aS'0348/0013.png'
p4279
aS'0348/0014.png'
p4280
aS'0348/0015.png'
p4281
aS'0348/0016.png'
p4282
aS'0348/0017.png'
p4283
aS'0348/0018.png'
p4284
aS'0348/0019.png'
p4285
aS'0348/0020.png'
p4286
aS'0348/0021.png'
p4287
aS'0348/0022.png'
p4288
aS'0348/0023.png'
p4289
aS'0348/0024.png'
p4290
aS'0348/0025.png'
p4291
aS'0348/0026.png'
p4292
aS'0348/0027.png'
p4293
aS'0348/0028.png'
p4294
aS'0348/0029.png'
p4295
aS'0348/0030.png'
p4296
aS'0348/0031.png'
p4297
aS'0348/0032.png'
p4298
aS'0348/0033.png'
p4299
aS'0348/0034.png'
p4300
aS'0348/0035.png'
p4301
aS'0348/0036.png'
p4302
aS'0348/0037.png'
p4303
aS'0348/0038.png'
p4304
aS'0348/0039.png'
p4305
aS'0348/0040.png'
p4306
aS'0348/0041.png'
p4307
aS'0348/0042.png'
p4308
aS'0348/0043.png'
p4309
aS'0348/0044.png'
p4310
aS'0348/0045.png'
p4311
aS'0348/0046.png'
p4312
aS'0348/0047.png'
p4313
aS'0348/0048.png'
p4314
aS'0348/0049.png'
p4315
aS'0348/0050.png'
p4316
aS'0348/0051.png'
p4317
aS'0348/0052.png'
p4318
aS'0348/0053.png'
p4319
aS'0348/0054.png'
p4320
aS'0348/0055.png'
p4321
aS'0348/0056.png'
p4322
aS'0348/0057.png'
p4323
aS'0348/0058.png'
p4324
aS'0348/0059.png'
p4325
aS'0348/0060.png'
p4326
aS'0348/0061.png'
p4327
aa(lp4328
S'0349/0001.png'
p4329
aS'0349/0002.png'
p4330
aS'0349/0003.png'
p4331
aS'0349/0004.png'
p4332
aS'0349/0005.png'
p4333
aS'0349/0006.png'
p4334
aS'0349/0007.png'
p4335
aS'0349/0008.png'
p4336
aS'0349/0009.png'
p4337
aS'0349/0010.png'
p4338
aS'0349/0011.png'
p4339
aS'0349/0012.png'
p4340
aS'0349/0013.png'
p4341
aS'0349/0014.png'
p4342
aS'0349/0015.png'
p4343
aS'0349/0016.png'
p4344
aS'0349/0017.png'
p4345
aS'0349/0018.png'
p4346
aS'0349/0019.png'
p4347
aS'0349/0020.png'
p4348
aS'0349/0021.png'
p4349
aS'0349/0022.png'
p4350
aS'0349/0023.png'
p4351
aS'0349/0024.png'
p4352
aS'0349/0025.png'
p4353
aS'0349/0026.png'
p4354
aS'0349/0027.png'
p4355
aS'0349/0028.png'
p4356
aS'0349/0029.png'
p4357
aS'0349/0030.png'
p4358
aS'0349/0031.png'
p4359
aS'0349/0032.png'
p4360
aS'0349/0033.png'
p4361
aS'0349/0034.png'
p4362
aS'0349/0035.png'
p4363
aS'0349/0036.png'
p4364
aS'0349/0037.png'
p4365
aS'0349/0038.png'
p4366
aS'0349/0039.png'
p4367
aS'0349/0040.png'
p4368
aS'0349/0041.png'
p4369
aS'0349/0042.png'
p4370
aS'0349/0043.png'
p4371
aS'0349/0044.png'
p4372
aS'0349/0045.png'
p4373
aS'0349/0046.png'
p4374
aS'0349/0047.png'
p4375
aS'0349/0048.png'
p4376
aS'0349/0049.png'
p4377
aS'0349/0050.png'
p4378
aS'0349/0051.png'
p4379
aS'0349/0052.png'
p4380
aS'0349/0053.png'
p4381
aS'0349/0054.png'
p4382
aS'0349/0055.png'
p4383
aS'0349/0056.png'
p4384
aS'0349/0057.png'
p4385
aS'0349/0058.png'
p4386
aS'0349/0059.png'
p4387
aa(lp4388
S'0350/0021.png'
p4389
aS'0350/0026.png'
p4390
aS'0350/0031.png'
p4391
aS'0350/0036.png'
p4392
aS'0350/0041.png'
p4393
aS'0350/0046.png'
p4394
aS'0350/0051.png'
p4395
aS'0350/0056.png'
p4396
aS'0350/0061.png'
p4397
aS'0350/0066.png'
p4398
aS'0350/0071.png'
p4399
aS'0350/0076.png'
p4400
aS'0350/0081.png'
p4401
aS'0350/0086.png'
p4402
aS'0350/0091.png'
p4403
aS'0350/0096.png'
p4404
aS'0350/0101.png'
p4405
aS'0350/0106.png'
p4406
aS'0350/0111.png'
p4407
aS'0350/0116.png'
p4408
aS'0350/0121.png'
p4409
aS'0350/0126.png'
p4410
aS'0350/0131.png'
p4411
aS'0350/0136.png'
p4412
aS'0350/0141.png'
p4413
aS'0350/0146.png'
p4414
aS'0350/0161.png'
p4415
aS'0350/0166.png'
p4416
aS'0350/0171.png'
p4417
aS'0350/0176.png'
p4418
aS'0350/0181.png'
p4419
aS'0350/0186.png'
p4420
aS'0350/0191.png'
p4421
aS'0350/0196.png'
p4422
aa(lp4423
S'0351/0011.png'
p4424
aS'0351/0014.png'
p4425
aS'0351/0017.png'
p4426
aS'0351/0020.png'
p4427
aS'0351/0021.png'
p4428
aS'0351/0024.png'
p4429
aS'0351/0027.png'
p4430
aS'0351/0030.png'
p4431
aS'0351/0031.png'
p4432
aS'0351/0034.png'
p4433
aS'0351/0037.png'
p4434
aS'0351/0040.png'
p4435
aS'0351/0041.png'
p4436
aS'0351/0044.png'
p4437
aS'0351/0047.png'
p4438
aS'0351/0050.png'
p4439
aS'0351/0051.png'
p4440
aS'0351/0054.png'
p4441
aS'0351/0057.png'
p4442
aS'0351/0060.png'
p4443
aS'0351/0061.png'
p4444
aS'0351/0064.png'
p4445
aS'0351/0067.png'
p4446
aS'0351/0070.png'
p4447
aS'0351/0071.png'
p4448
aS'0351/0074.png'
p4449
aS'0351/0077.png'
p4450
aS'0351/0080.png'
p4451
aS'0351/0081.png'
p4452
aS'0351/0084.png'
p4453
aS'0351/0087.png'
p4454
aS'0351/0090.png'
p4455
aa(lp4456
S'0353/0012.png'
p4457
aS'0353/0013.png'
p4458
aS'0353/0014.png'
p4459
aS'0353/0015.png'
p4460
aS'0353/0016.png'
p4461
aS'0353/0017.png'
p4462
aS'0353/0018.png'
p4463
aS'0353/0019.png'
p4464
aS'0353/0020.png'
p4465
aS'0353/0021.png'
p4466
aS'0353/0022.png'
p4467
aS'0353/0023.png'
p4468
aS'0353/0024.png'
p4469
aS'0353/0025.png'
p4470
aS'0353/0026.png'
p4471
aS'0353/0027.png'
p4472
aS'0353/0028.png'
p4473
aS'0353/0029.png'
p4474
aS'0353/0030.png'
p4475
aS'0353/0031.png'
p4476
aS'0353/0032.png'
p4477
aS'0353/0033.png'
p4478
aS'0353/0034.png'
p4479
aS'0353/0035.png'
p4480
aS'0353/0036.png'
p4481
aS'0353/0037.png'
p4482
aa(lp4483
S'0356/0002.png'
p4484
aS'0356/0012.png'
p4485
aS'0356/0022.png'
p4486
aS'0356/0033.png'
p4487
aS'0356/0042.png'
p4488
aS'0356/0052.png'
p4489
aS'0356/0062.png'
p4490
aS'0356/0072.png'
p4491
aS'0356/0082.png'
p4492
aS'0356/0092.png'
p4493
aS'0356/0102.png'
p4494
aS'0356/0112.png'
p4495
aS'0356/0122.png'
p4496
aS'0356/0132.png'
p4497
aS'0356/0192.png'
p4498
aS'0356/0202.png'
p4499
aS'0356/0224.png'
p4500
aS'0356/0232.png'
p4501
aS'0356/0242.png'
p4502
aS'0356/0252.png'
p4503
aS'0356/0262.png'
p4504
aS'0356/0272.png'
p4505
aS'0356/0282.png'
p4506
aS'0356/0292.png'
p4507
aS'0356/0310.png'
p4508
aa(lp4509
S'0364/0001.png'
p4510
aS'0364/0002.png'
p4511
aS'0364/0003.png'
p4512
aS'0364/0004.png'
p4513
aS'0364/0005.png'
p4514
aS'0364/0006.png'
p4515
aS'0364/0007.png'
p4516
aS'0364/0008.png'
p4517
aS'0364/0009.png'
p4518
aS'0364/0010.png'
p4519
aS'0364/0011.png'
p4520
aS'0364/0012.png'
p4521
aS'0364/0013.png'
p4522
aS'0364/0014.png'
p4523
aS'0364/0015.png'
p4524
aS'0364/0016.png'
p4525
aS'0364/0017.png'
p4526
aS'0364/0018.png'
p4527
aS'0364/0019.png'
p4528
aS'0364/0020.png'
p4529
aS'0364/0021.png'
p4530
aS'0364/0022.png'
p4531
aS'0364/0023.png'
p4532
aS'0364/0024.png'
p4533
aS'0364/0025.png'
p4534
aS'0364/0026.png'
p4535
aS'0364/0027.png'
p4536
aS'0364/0028.png'
p4537
aS'0364/0029.png'
p4538
aS'0364/0030.png'
p4539
aS'0364/0031.png'
p4540
aS'0364/0032.png'
p4541
aS'0364/0033.png'
p4542
aS'0364/0034.png'
p4543
aS'0364/0035.png'
p4544
aS'0364/0036.png'
p4545
aS'0364/0037.png'
p4546
aS'0364/0038.png'
p4547
aS'0364/0039.png'
p4548
aS'0364/0040.png'
p4549
aS'0364/0041.png'
p4550
aS'0364/0042.png'
p4551
aS'0364/0043.png'
p4552
aS'0364/0044.png'
p4553
aS'0364/0045.png'
p4554
aS'0364/0046.png'
p4555
aS'0364/0047.png'
p4556
aa(lp4557
S'0365/0014.png'
p4558
aS'0365/0017.png'
p4559
aS'0365/0021.png'
p4560
aS'0365/0024.png'
p4561
aS'0365/0027.png'
p4562
aS'0365/0031.png'
p4563
aS'0365/0034.png'
p4564
aS'0365/0037.png'
p4565
aS'0365/0041.png'
p4566
aS'0365/0044.png'
p4567
aS'0365/0047.png'
p4568
aS'0365/0051.png'
p4569
aS'0365/0054.png'
p4570
aS'0365/0057.png'
p4571
aS'0365/0061.png'
p4572
aS'0365/0064.png'
p4573
aS'0365/0067.png'
p4574
aS'0365/0071.png'
p4575
aS'0365/0074.png'
p4576
aS'0365/0077.png'
p4577
aS'0365/0081.png'
p4578
aS'0365/0084.png'
p4579
aS'0365/0087.png'
p4580
aS'0365/0091.png'
p4581
aS'0365/0094.png'
p4582
aS'0365/0097.png'
p4583
aS'0365/0101.png'
p4584
aS'0365/0104.png'
p4585
aS'0365/0107.png'
p4586
aS'0365/0111.png'
p4587
aS'0365/0114.png'
p4588
aa(lp4589
S'0367/0532.png'
p4590
aS'0367/0552.png'
p4591
aS'0367/0572.png'
p4592
aS'0367/0592.png'
p4593
aS'0367/0612.png'
p4594
aS'0367/0632.png'
p4595
aS'0367/0652.png'
p4596
aS'0367/0672.png'
p4597
aS'0367/0692.png'
p4598
aS'0367/0752.png'
p4599
aS'0367/0772.png'
p4600
aS'0367/0812.png'
p4601
aS'0367/0852.png'
p4602
aS'0367/0892.png'
p4603
aS'0367/0932.png'
p4604
aS'0367/0952.png'
p4605
aS'0367/0972.png'
p4606
aS'0367/0992.png'
p4607
aS'0367/1012.png'
p4608
aS'0367/1032.png'
p4609
aS'0367/1052.png'
p4610
aS'0367/1092.png'
p4611
aS'0367/1132.png'
p4612
aS'0367/1192.png'
p4613
aS'0367/1232.png'
p4614
aS'0367/1252.png'
p4615
aS'0367/1292.png'
p4616
aS'0367/1312.png'
p4617
aS'0367/1372.png'
p4618
aS'0367/1412.png'
p4619
aS'0367/1512.png'
p4620
aS'0367/1572.png'
p4621
aS'0367/1592.png'
p4622
aS'0367/1612.png'
p4623
aS'0367/1632.png'
p4624
aS'0367/1652.png'
p4625
aS'0367/1672.png'
p4626
aS'0367/1692.png'
p4627
aS'0367/1712.png'
p4628
aS'0367/1732.png'
p4629
aS'0367/1752.png'
p4630
aS'0367/1772.png'
p4631
aS'0367/1792.png'
p4632
aS'0367/1812.png'
p4633
aS'0367/1832.png'
p4634
aS'0367/1852.png'
p4635
aS'0367/1952.png'
p4636
aS'0367/1972.png'
p4637
aS'0367/1992.png'
p4638
aa(lp4639
S'0372/0002.png'
p4640
aS'0372/0003.png'
p4641
aS'0372/0004.png'
p4642
aS'0372/0005.png'
p4643
aS'0372/0006.png'
p4644
aS'0372/0007.png'
p4645
aS'0372/0008.png'
p4646
aS'0372/0009.png'
p4647
aS'0372/0010.png'
p4648
aS'0372/0011.png'
p4649
aS'0372/0012.png'
p4650
aS'0372/0013.png'
p4651
aS'0372/0014.png'
p4652
aS'0372/0015.png'
p4653
aS'0372/0016.png'
p4654
aS'0372/0017.png'
p4655
aS'0372/0018.png'
p4656
aS'0372/0019.png'
p4657
aS'0372/0020.png'
p4658
aS'0372/0021.png'
p4659
aS'0372/0022.png'
p4660
aS'0372/0023.png'
p4661
aS'0372/0024.png'
p4662
aS'0372/0025.png'
p4663
aS'0372/0026.png'
p4664
aS'0372/0027.png'
p4665
aS'0372/0028.png'
p4666
aS'0372/0029.png'
p4667
aS'0372/0030.png'
p4668
aS'0372/0031.png'
p4669
aS'0372/0032.png'
p4670
aS'0372/0033.png'
p4671
aS'0372/0034.png'
p4672
aS'0372/0035.png'
p4673
aS'0372/0036.png'
p4674
aS'0372/0037.png'
p4675
aS'0372/0038.png'
p4676
aS'0372/0039.png'
p4677
aS'0372/0040.png'
p4678
aS'0372/0041.png'
p4679
aS'0372/0042.png'
p4680
aS'0372/0043.png'
p4681
aS'0372/0044.png'
p4682
aS'0372/0045.png'
p4683
aS'0372/0046.png'
p4684
aS'0372/0047.png'
p4685
aS'0372/0048.png'
p4686
aS'0372/0049.png'
p4687
aS'0372/0050.png'
p4688
aS'0372/0051.png'
p4689
aS'0372/0052.png'
p4690
aS'0372/0053.png'
p4691
aS'0372/0054.png'
p4692
aS'0372/0055.png'
p4693
aS'0372/0056.png'
p4694
aa(lp4695
S'0373/0007.png'
p4696
aS'0373/0011.png'
p4697
aS'0373/0014.png'
p4698
aS'0373/0017.png'
p4699
aS'0373/0021.png'
p4700
aS'0373/0024.png'
p4701
aS'0373/0027.png'
p4702
aS'0373/0031.png'
p4703
aS'0373/0034.png'
p4704
aS'0373/0037.png'
p4705
aS'0373/0041.png'
p4706
aS'0373/0044.png'
p4707
aS'0373/0047.png'
p4708
aS'0373/0051.png'
p4709
aS'0373/0054.png'
p4710
aS'0373/0057.png'
p4711
aS'0373/0061.png'
p4712
aS'0373/0064.png'
p4713
aS'0373/0067.png'
p4714
aS'0373/0071.png'
p4715
aS'0373/0074.png'
p4716
aS'0373/0077.png'
p4717
aS'0373/0081.png'
p4718
aS'0373/0084.png'
p4719
aS'0373/0087.png'
p4720
aS'0373/0091.png'
p4721
aS'0373/0094.png'
p4722
aS'0373/0097.png'
p4723
aS'0373/0101.png'
p4724
aS'0373/0104.png'
p4725
aS'0373/0107.png'
p4726
aS'0373/0111.png'
p4727
aS'0373/0114.png'
p4728
aa(lp4729
S'0375/0001.png'
p4730
aS'0375/0006.png'
p4731
aS'0375/0011.png'
p4732
aS'0375/0016.png'
p4733
aS'0375/0021.png'
p4734
aS'0375/0026.png'
p4735
aS'0375/0031.png'
p4736
aS'0375/0036.png'
p4737
aS'0375/0041.png'
p4738
aS'0375/0046.png'
p4739
aS'0375/0051.png'
p4740
aS'0375/0056.png'
p4741
aS'0375/0061.png'
p4742
aS'0375/0066.png'
p4743
aS'0375/0071.png'
p4744
aS'0375/0076.png'
p4745
aS'0375/0081.png'
p4746
aS'0375/0086.png'
p4747
aS'0375/0091.png'
p4748
aS'0375/0096.png'
p4749
aS'0375/0101.png'
p4750
aS'0375/0106.png'
p4751
aS'0375/0111.png'
p4752
aS'0375/0116.png'
p4753
aS'0375/0121.png'
p4754
aS'0375/0126.png'
p4755
aS'0375/0131.png'
p4756
aS'0375/0136.png'
p4757
aa(lp4758
S'0379/0001.png'
p4759
aS'0379/0002.png'
p4760
aS'0379/0008.png'
p4761
aS'0379/0009.png'
p4762
aS'0379/0010.png'
p4763
aS'0379/0011.png'
p4764
aS'0379/0012.png'
p4765
aS'0379/0013.png'
p4766
aS'0379/0014.png'
p4767
aS'0379/0015.png'
p4768
aS'0379/0028.png'
p4769
aS'0379/0029.png'
p4770
aS'0379/0030.png'
p4771
aS'0379/0031.png'
p4772
aS'0379/0032.png'
p4773
aS'0379/0033.png'
p4774
aS'0379/0034.png'
p4775
aS'0379/0035.png'
p4776
aS'0379/0036.png'
p4777
aS'0379/0037.png'
p4778
aa(lp4779
S'0381/0001.png'
p4780
aS'0381/0002.png'
p4781
aS'0381/0008.png'
p4782
aS'0381/0009.png'
p4783
aS'0381/0010.png'
p4784
aS'0381/0011.png'
p4785
aS'0381/0012.png'
p4786
aS'0381/0013.png'
p4787
aS'0381/0014.png'
p4788
aS'0381/0015.png'
p4789
aS'0381/0028.png'
p4790
aS'0381/0029.png'
p4791
aS'0381/0030.png'
p4792
aS'0381/0031.png'
p4793
aS'0381/0032.png'
p4794
aS'0381/0033.png'
p4795
aS'0381/0034.png'
p4796
aS'0381/0035.png'
p4797
aS'0381/0036.png'
p4798
aS'0381/0037.png'
p4799
aa(lp4800
S'0382/0001.png'
p4801
aS'0382/0002.png'
p4802
aS'0382/0008.png'
p4803
aS'0382/0009.png'
p4804
aS'0382/0010.png'
p4805
aS'0382/0011.png'
p4806
aS'0382/0012.png'
p4807
aS'0382/0013.png'
p4808
aS'0382/0014.png'
p4809
aS'0382/0015.png'
p4810
aS'0382/0028.png'
p4811
aS'0382/0029.png'
p4812
aS'0382/0030.png'
p4813
aS'0382/0031.png'
p4814
aS'0382/0032.png'
p4815
aS'0382/0033.png'
p4816
aS'0382/0034.png'
p4817
aS'0382/0035.png'
p4818
aS'0382/0036.png'
p4819
aS'0382/0037.png'
p4820
aa(lp4821
S'0384/0036.png'
p4822
aS'0384/0046.png'
p4823
aS'0384/0051.png'
p4824
aS'0384/0056.png'
p4825
aS'0384/0061.png'
p4826
aS'0384/0066.png'
p4827
aS'0384/0071.png'
p4828
aS'0384/0076.png'
p4829
aS'0384/0081.png'
p4830
aS'0384/0086.png'
p4831
aS'0384/0091.png'
p4832
aS'0384/0096.png'
p4833
aS'0384/0101.png'
p4834
aS'0384/0106.png'
p4835
aS'0384/0111.png'
p4836
aS'0384/0116.png'
p4837
aS'0384/0121.png'
p4838
aS'0384/0126.png'
p4839
aS'0384/0131.png'
p4840
aS'0384/0136.png'
p4841
aS'0384/0141.png'
p4842
aS'0384/0146.png'
p4843
aS'0384/0151.png'
p4844
aS'0384/0156.png'
p4845
aS'0384/0191.png'
p4846
aS'0384/0196.png'
p4847
aS'0384/0201.png'
p4848
aS'0384/0206.png'
p4849
aS'0384/0211.png'
p4850
aS'0384/0216.png'
p4851
aS'0384/0221.png'
p4852
aS'0384/0226.png'
p4853
aS'0384/0231.png'
p4854
aS'0384/0236.png'
p4855
aS'0384/0241.png'
p4856
aS'0384/0246.png'
p4857
aS'0384/0256.png'
p4858
aS'0384/0266.png'
p4859
aS'0384/0271.png'
p4860
aS'0384/0276.png'
p4861
aa(lp4862
S'0388/0031.png'
p4863
aS'0388/0041.png'
p4864
aS'0388/0051.png'
p4865
aS'0388/0061.png'
p4866
aS'0388/0071.png'
p4867
aS'0388/0081.png'
p4868
aS'0388/0091.png'
p4869
aS'0388/0101.png'
p4870
aS'0388/0111.png'
p4871
aS'0388/0121.png'
p4872
aS'0388/0131.png'
p4873
aS'0388/0141.png'
p4874
aS'0388/0281.png'
p4875
aS'0388/0291.png'
p4876
aS'0388/0301.png'
p4877
aS'0388/0311.png'
p4878
aS'0388/0371.png'
p4879
aS'0388/0381.png'
p4880
aS'0388/0391.png'
p4881
aS'0388/0401.png'
p4882
aS'0388/0411.png'
p4883
aS'0388/0421.png'
p4884
aS'0388/0431.png'
p4885
aS'0388/0441.png'
p4886
aS'0388/0461.png'
p4887
aa(lp4888
S'0389/0010.png'
p4889
aS'0389/0011.png'
p4890
aS'0389/0012.png'
p4891
aS'0389/0013.png'
p4892
aS'0389/0014.png'
p4893
aS'0389/0015.png'
p4894
aS'0389/0016.png'
p4895
aS'0389/0017.png'
p4896
aS'0389/0018.png'
p4897
aS'0389/0019.png'
p4898
aS'0389/0020.png'
p4899
aS'0389/0021.png'
p4900
aS'0389/0022.png'
p4901
aS'0389/0023.png'
p4902
aS'0389/0024.png'
p4903
aS'0389/0025.png'
p4904
aS'0389/0026.png'
p4905
aS'0389/0027.png'
p4906
aS'0389/0028.png'
p4907
aS'0389/0029.png'
p4908
aS'0389/0030.png'
p4909
aS'0389/0031.png'
p4910
aS'0389/0032.png'
p4911
aS'0389/0033.png'
p4912
aS'0389/0034.png'
p4913
aS'0389/0035.png'
p4914
aS'0389/0036.png'
p4915
aS'0389/0037.png'
p4916
aS'0389/0038.png'
p4917
aS'0389/0039.png'
p4918
aS'0389/0040.png'
p4919
aS'0389/0041.png'
p4920
aa(lp4921
S'0393/0001.png'
p4922
aS'0393/0004.png'
p4923
aS'0393/0007.png'
p4924
aS'0393/0012.png'
p4925
aS'0393/0014.png'
p4926
aS'0393/0017.png'
p4927
aS'0393/0021.png'
p4928
aS'0393/0027.png'
p4929
aS'0393/0032.png'
p4930
aS'0393/0034.png'
p4931
aS'0393/0037.png'
p4932
aS'0393/0041.png'
p4933
aS'0393/0044.png'
p4934
aS'0393/0047.png'
p4935
aS'0393/0051.png'
p4936
aa(lp4937
S'0395/0241.png'
p4938
aS'0395/0251.png'
p4939
aS'0395/0261.png'
p4940
aS'0395/0271.png'
p4941
aS'0395/0281.png'
p4942
aS'0395/0291.png'
p4943
aS'0395/0301.png'
p4944
aS'0395/0311.png'
p4945
aS'0395/0321.png'
p4946
aS'0395/0331.png'
p4947
aS'0395/0341.png'
p4948
aS'0395/0351.png'
p4949
aS'0395/0361.png'
p4950
aS'0395/0371.png'
p4951
aS'0395/0381.png'
p4952
aS'0395/0391.png'
p4953
aS'0395/0401.png'
p4954
aS'0395/0411.png'
p4955
aS'0395/0421.png'
p4956
aS'0395/0431.png'
p4957
aS'0395/0441.png'
p4958
aS'0395/0451.png'
p4959
aS'0395/0461.png'
p4960
aS'0395/0471.png'
p4961
aS'0395/0481.png'
p4962
aS'0395/0491.png'
p4963
aS'0395/0501.png'
p4964
aa(lp4965
S'0396/0002.png'
p4966
aS'0396/0004.png'
p4967
aS'0396/0007.png'
p4968
aS'0396/0008.png'
p4969
aS'0396/0012.png'
p4970
aS'0396/0014.png'
p4971
aS'0396/0015.png'
p4972
aS'0396/0017.png'
p4973
aS'0396/0018.png'
p4974
aS'0396/0021.png'
p4975
aS'0396/0022.png'
p4976
aS'0396/0027.png'
p4977
aS'0396/0032.png'
p4978
aS'0396/0035.png'
p4979
aS'0396/0037.png'
p4980
aS'0396/0040.png'
p4981
aS'0396/0042.png'
p4982
aS'0396/0047.png'
p4983
aS'0396/0052.png'
p4984
aS'0396/0057.png'
p4985
aS'0396/0062.png'
p4986
aS'0396/0067.png'
p4987
aS'0396/0072.png'
p4988
aS'0396/0077.png'
p4989
aS'0396/0082.png'
p4990
aa(lp4991
S'0397/0010.png'
p4992
aS'0397/0011.png'
p4993
aS'0397/0012.png'
p4994
aS'0397/0013.png'
p4995
aS'0397/0014.png'
p4996
aS'0397/0015.png'
p4997
aS'0397/0016.png'
p4998
aS'0397/0017.png'
p4999
aS'0397/0018.png'
p5000
aS'0397/0019.png'
p5001
aS'0397/0020.png'
p5002
aS'0397/0021.png'
p5003
aS'0397/0022.png'
p5004
aS'0397/0023.png'
p5005
aS'0397/0024.png'
p5006
aS'0397/0025.png'
p5007
aS'0397/0026.png'
p5008
aS'0397/0027.png'
p5009
aS'0397/0028.png'
p5010
aS'0397/0029.png'
p5011
aS'0397/0030.png'
p5012
aS'0397/0031.png'
p5013
aa(lp5014
S'0398/0001.png'
p5015
aS'0398/0002.png'
p5016
aS'0398/0003.png'
p5017
aS'0398/0004.png'
p5018
aS'0398/0005.png'
p5019
aS'0398/0006.png'
p5020
aS'0398/0007.png'
p5021
aS'0398/0008.png'
p5022
aS'0398/0009.png'
p5023
aS'0398/0010.png'
p5024
aS'0398/0011.png'
p5025
aS'0398/0012.png'
p5026
aS'0398/0013.png'
p5027
aS'0398/0014.png'
p5028
aS'0398/0015.png'
p5029
aS'0398/0016.png'
p5030
aS'0398/0017.png'
p5031
aS'0398/0018.png'
p5032
aS'0398/0019.png'
p5033
aS'0398/0020.png'
p5034
aS'0398/0021.png'
p5035
aS'0398/0022.png'
p5036
aS'0398/0023.png'
p5037
aS'0398/0024.png'
p5038
aS'0398/0025.png'
p5039
aS'0398/0026.png'
p5040
aS'0398/0027.png'
p5041
aS'0398/0028.png'
p5042
aS'0398/0029.png'
p5043
aS'0398/0030.png'
p5044
aS'0398/0031.png'
p5045
aS'0398/0032.png'
p5046
aS'0398/0033.png'
p5047
aS'0398/0034.png'
p5048
aS'0398/0035.png'
p5049
aa(lp5050
S'0399/0004.png'
p5051
aS'0399/0005.png'
p5052
aS'0399/0006.png'
p5053
aS'0399/0014.png'
p5054
aS'0399/0015.png'
p5055
aS'0399/0016.png'
p5056
aS'0399/0017.png'
p5057
aS'0399/0018.png'
p5058
aS'0399/0019.png'
p5059
aa(lp5060
S'0400/0001.png'
p5061
aS'0400/0007.png'
p5062
aS'0400/0008.png'
p5063
aS'0400/0009.png'
p5064
aS'0400/0010.png'
p5065
aS'0400/0021.png'
p5066
aS'0400/0022.png'
p5067
aS'0400/0023.png'
p5068
aS'0400/0024.png'
p5069
aS'0400/0025.png'
p5070
aS'0400/0026.png'
p5071
aS'0400/0027.png'
p5072
aS'0400/0028.png'
p5073
aS'0400/0029.png'
p5074
aS'0400/0030.png'
p5075
aS'0400/0031.png'
p5076
aS'0400/0032.png'
p5077
aS'0400/0033.png'
p5078
aS'0400/0034.png'
p5079
aS'0400/0035.png'
p5080
aa(lp5081
S'0401/0001.png'
p5082
aS'0401/0014.png'
p5083
aS'0401/0015.png'
p5084
aS'0401/0016.png'
p5085
aS'0401/0017.png'
p5086
aS'0401/0019.png'
p5087
aS'0401/0020.png'
p5088
aS'0401/0021.png'
p5089
aS'0401/0022.png'
p5090
aS'0401/0023.png'
p5091
aS'0401/0024.png'
p5092
aS'0401/0025.png'
p5093
aS'0401/0026.png'
p5094
aS'0401/0027.png'
p5095
aS'0401/0029.png'
p5096
aS'0401/0030.png'
p5097
aS'0401/0031.png'
p5098
aS'0401/0080.png'
p5099
aS'0401/0081.png'
p5100
aS'0401/0082.png'
p5101
aa(lp5102
S'0402/0001.png'
p5103
aS'0402/0002.png'
p5104
aS'0402/0003.png'
p5105
aS'0402/0004.png'
p5106
aS'0402/0005.png'
p5107
aS'0402/0006.png'
p5108
aS'0402/0007.png'
p5109
aS'0402/0008.png'
p5110
aS'0402/0009.png'
p5111
aS'0402/0010.png'
p5112
aS'0402/0011.png'
p5113
aS'0402/0012.png'
p5114
aS'0402/0013.png'
p5115
aS'0402/0014.png'
p5116
aS'0402/0015.png'
p5117
aS'0402/0016.png'
p5118
aS'0402/0017.png'
p5119
aS'0402/0018.png'
p5120
aS'0402/0019.png'
p5121
aS'0402/0020.png'
p5122
aa(lp5123
S'0403/0001.png'
p5124
aS'0403/0008.png'
p5125
aS'0403/0009.png'
p5126
aS'0403/0010.png'
p5127
aS'0403/0012.png'
p5128
aS'0403/0013.png'
p5129
aS'0403/0014.png'
p5130
aS'0403/0015.png'
p5131
aS'0403/0016.png'
p5132
aS'0403/0017.png'
p5133
aS'0403/0018.png'
p5134
aS'0403/0019.png'
p5135
aS'0403/0020.png'
p5136
aS'0403/0021.png'
p5137
aS'0403/0022.png'
p5138
aS'0403/0023.png'
p5139
aS'0403/0024.png'
p5140
aS'0403/0026.png'
p5141
aS'0403/0027.png'
p5142
aS'0403/0030.png'
p5143
aS'0403/0033.png'
p5144
aS'0403/0034.png'
p5145
aS'0403/0035.png'
p5146
aS'0403/0036.png'
p5147
aS'0403/0037.png'
p5148
aS'0403/0038.png'
p5149
aS'0403/0039.png'
p5150
aS'0403/0040.png'
p5151
aS'0403/0041.png'
p5152
aS'0403/0042.png'
p5153
aS'0403/0043.png'
p5154
aS'0403/0044.png'
p5155
aS'0403/0045.png'
p5156
aS'0403/0046.png'
p5157
aS'0403/0047.png'
p5158
aa(lp5159
S'0404/0001.png'
p5160
aS'0404/0002.png'
p5161
aS'0404/0003.png'
p5162
aS'0404/0004.png'
p5163
aS'0404/0005.png'
p5164
aS'0404/0006.png'
p5165
aS'0404/0007.png'
p5166
aS'0404/0008.png'
p5167
aS'0404/0009.png'
p5168
aS'0404/0010.png'
p5169
aS'0404/0011.png'
p5170
aS'0404/0012.png'
p5171
aS'0404/0013.png'
p5172
aS'0404/0014.png'
p5173
aS'0404/0015.png'
p5174
aS'0404/0016.png'
p5175
aS'0404/0017.png'
p5176
aS'0404/0018.png'
p5177
aS'0404/0019.png'
p5178
aS'0404/0020.png'
p5179
aS'0404/0021.png'
p5180
aS'0404/0022.png'
p5181
aS'0404/0023.png'
p5182
aS'0404/0024.png'
p5183
aS'0404/0025.png'
p5184
aS'0404/0026.png'
p5185
aS'0404/0027.png'
p5186
aS'0404/0028.png'
p5187
aS'0404/0029.png'
p5188
aS'0404/0030.png'
p5189
aS'0404/0031.png'
p5190
aS'0404/0032.png'
p5191
aS'0404/0033.png'
p5192
aS'0404/0034.png'
p5193
aS'0404/0035.png'
p5194
aa(lp5195
S'0405/0091.png'
p5196
aS'0405/0101.png'
p5197
aS'0405/0111.png'
p5198
aS'0405/0121.png'
p5199
aS'0405/0131.png'
p5200
aS'0405/0141.png'
p5201
aS'0405/0151.png'
p5202
aS'0405/0161.png'
p5203
aS'0405/0171.png'
p5204
aS'0405/0181.png'
p5205
aS'0405/0191.png'
p5206
aS'0405/0201.png'
p5207
aS'0405/0211.png'
p5208
aS'0405/0221.png'
p5209
aS'0405/0231.png'
p5210
aS'0405/0241.png'
p5211
aS'0405/0251.png'
p5212
aS'0405/0261.png'
p5213
aS'0405/0271.png'
p5214
aS'0405/0281.png'
p5215
aS'0405/0291.png'
p5216
aS'0405/0301.png'
p5217
aS'0405/0311.png'
p5218
aS'0405/0321.png'
p5219
aS'0405/0331.png'
p5220
aS'0405/0341.png'
p5221
aS'0405/0351.png'
p5222
aS'0405/0361.png'
p5223
aS'0405/0371.png'
p5224
aS'0405/0381.png'
p5225
aS'0405/0391.png'
p5226
aS'0405/0401.png'
p5227
aS'0405/0431.png'
p5228
aS'0405/0441.png'
p5229
aa(lp5230
S'0406/0095.png'
p5231
aS'0406/0096.png'
p5232
aS'0406/0097.png'
p5233
aS'0406/0098.png'
p5234
aS'0406/0099.png'
p5235
aS'0406/0100.png'
p5236
aS'0406/0101.png'
p5237
aS'0406/0102.png'
p5238
aS'0406/0103.png'
p5239
aS'0406/0104.png'
p5240
aS'0406/0105.png'
p5241
aS'0406/0106.png'
p5242
aS'0406/0107.png'
p5243
aS'0406/0108.png'
p5244
aS'0406/0109.png'
p5245
aS'0406/0110.png'
p5246
aS'0406/0111.png'
p5247
aS'0406/0112.png'
p5248
aS'0406/0113.png'
p5249
aS'0406/0114.png'
p5250
aS'0406/0115.png'
p5251
aS'0406/0116.png'
p5252
aS'0406/0117.png'
p5253
aS'0406/0118.png'
p5254
aS'0406/0119.png'
p5255
aS'0406/0120.png'
p5256
aS'0406/0121.png'
p5257
aS'0406/0122.png'
p5258
aS'0406/0123.png'
p5259
aS'0406/0124.png'
p5260
aS'0406/0125.png'
p5261
aS'0406/0126.png'
p5262
aS'0406/0127.png'
p5263
aS'0406/0128.png'
p5264
aS'0406/0129.png'
p5265
aS'0406/0130.png'
p5266
aS'0406/0131.png'
p5267
aS'0406/0132.png'
p5268
aS'0406/0133.png'
p5269
aS'0406/0134.png'
p5270
aS'0406/0135.png'
p5271
aa(lp5272
S'0407/0742.png'
p5273
aS'0407/0743.png'
p5274
aS'0407/0744.png'
p5275
aS'0407/0745.png'
p5276
aS'0407/0746.png'
p5277
aS'0407/0747.png'
p5278
aS'0407/0748.png'
p5279
aS'0407/0749.png'
p5280
aS'0407/0750.png'
p5281
aS'0407/0751.png'
p5282
aS'0407/0752.png'
p5283
aS'0407/0755.png'
p5284
aS'0407/0757.png'
p5285
aS'0407/0758.png'
p5286
aS'0407/0760.png'
p5287
aS'0407/0761.png'
p5288
aS'0407/0763.png'
p5289
aS'0407/0765.png'
p5290
aS'0407/0767.png'
p5291
aS'0407/0769.png'
p5292
aS'0407/0771.png'
p5293
aS'0407/0773.png'
p5294
aS'0407/0775.png'
p5295
aS'0407/0777.png'
p5296
aS'0407/0779.png'
p5297
aS'0407/0781.png'
p5298
aS'0407/0782.png'
p5299
aS'0407/0783.png'
p5300
aS'0407/0784.png'
p5301
aS'0407/0785.png'
p5302
aS'0407/0786.png'
p5303
aa(lp5304
S'0408/0001.png'
p5305
aS'0408/0011.png'
p5306
aS'0408/0042.png'
p5307
aS'0408/0243.png'
p5308
aS'0408/0263.png'
p5309
aS'0408/0326.png'
p5310
aS'0408/0363.png'
p5311
aS'0408/0372.png'
p5312
aS'0408/0383.png'
p5313
aS'0408/0384.png'
p5314
aS'0408/0497.png'
p5315
aS'0408/0624.png'
p5316
aS'0408/0625.png'
p5317
aa(lp5318
S'0409/0001.png'
p5319
aS'0409/0006.png'
p5320
aS'0409/0011.png'
p5321
aS'0409/0016.png'
p5322
aS'0409/0021.png'
p5323
aS'0409/0026.png'
p5324
aS'0409/0031.png'
p5325
aS'0409/0036.png'
p5326
aS'0409/0041.png'
p5327
aS'0409/0046.png'
p5328
aS'0409/0051.png'
p5329
aS'0409/0056.png'
p5330
aS'0409/0061.png'
p5331
aS'0409/0066.png'
p5332
aS'0409/0071.png'
p5333
aS'0409/0076.png'
p5334
aS'0409/0081.png'
p5335
aS'0409/0086.png'
p5336
aS'0409/0091.png'
p5337
aS'0409/0096.png'
p5338
aS'0409/0101.png'
p5339
aS'0409/0106.png'
p5340
aS'0409/0111.png'
p5341
aS'0409/0116.png'
p5342
aS'0409/0121.png'
p5343
aS'0409/0126.png'
p5344
aS'0409/0131.png'
p5345
aa(lp5346
S'0410/IMG_7726.JPG'
p5347
aS'0410/IMG_7727.JPG'
p5348
aS'0410/IMG_7728.JPG'
p5349
aS'0410/IMG_7729.JPG'
p5350
aS'0410/IMG_7730.JPG'
p5351
aS'0410/IMG_7731.JPG'
p5352
aS'0410/IMG_7732.JPG'
p5353
aS'0410/IMG_7733.JPG'
p5354
aS'0410/IMG_7734.JPG'
p5355
aS'0410/IMG_7735.JPG'
p5356
aS'0410/IMG_7736.JPG'
p5357
aS'0410/IMG_7737.JPG'
p5358
aS'0410/IMG_7738.JPG'
p5359
aS'0410/IMG_7739.JPG'
p5360
aS'0410/IMG_7740.JPG'
p5361
aS'0410/IMG_7741.JPG'
p5362
aS'0410/IMG_7742.JPG'
p5363
aS'0410/IMG_7743.JPG'
p5364
aS'0410/IMG_7744.JPG'
p5365
aS'0410/IMG_7745.JPG'
p5366
aS'0410/IMG_7746.JPG'
p5367
aS'0410/IMG_7747.JPG'
p5368
aS'0410/IMG_7748.JPG'
p5369
aS'0410/IMG_7749.JPG'
p5370
aS'0410/IMG_7750.JPG'
p5371
aS'0410/IMG_7751.JPG'
p5372
aS'0410/IMG_7752.JPG'
p5373
aS'0410/IMG_7753.JPG'
p5374
aS'0410/IMG_7754.JPG'
p5375
aS'0410/IMG_7755.JPG'
p5376
aa(lp5377
S'0411/IMG_7698.JPG'
p5378
aS'0411/IMG_7699.JPG'
p5379
aS'0411/IMG_7700.JPG'
p5380
aS'0411/IMG_7701.JPG'
p5381
aS'0411/IMG_7702.JPG'
p5382
aS'0411/IMG_7703.JPG'
p5383
aS'0411/IMG_7704.JPG'
p5384
aS'0411/IMG_7705.JPG'
p5385
aS'0411/IMG_7706.JPG'
p5386
aS'0411/IMG_7707.JPG'
p5387
aS'0411/IMG_7708.JPG'
p5388
aS'0411/IMG_7709.JPG'
p5389
aS'0411/IMG_7710.JPG'
p5390
aS'0411/IMG_7711.JPG'
p5391
aS'0411/IMG_7712.JPG'
p5392
aS'0411/IMG_7713.JPG'
p5393
aS'0411/IMG_7714.JPG'
p5394
aS'0411/IMG_7716.JPG'
p5395
aS'0411/IMG_7717.JPG'
p5396
aS'0411/IMG_7718.JPG'
p5397
aS'0411/IMG_7719.JPG'
p5398
aS'0411/IMG_7720.JPG'
p5399
aa(lp5400
S'0412/IMG_7758.JPG'
p5401
aS'0412/IMG_7759.JPG'
p5402
aS'0412/IMG_7760.JPG'
p5403
aS'0412/IMG_7761.JPG'
p5404
aS'0412/IMG_7762.JPG'
p5405
aS'0412/IMG_7763.JPG'
p5406
aS'0412/IMG_7764.JPG'
p5407
aS'0412/IMG_7765.JPG'
p5408
aS'0412/IMG_7767 (copy).JPG'
p5409
aS'0412/IMG_7767.JPG'
p5410
aS'0412/IMG_7768 (copy).JPG'
p5411
aS'0412/IMG_7768.JPG'
p5412
aS'0412/IMG_7769 (copy).JPG'
p5413
aS'0412/IMG_7769.JPG'
p5414
aS'0412/IMG_7770 (copy).JPG'
p5415
aS'0412/IMG_7770.JPG'
p5416
aS'0412/IMG_7771 (copy).JPG'
p5417
aS'0412/IMG_7771.JPG'
p5418
aS'0412/IMG_7772.JPG'
p5419
aS'0412/IMG_7773.JPG'
p5420
aS'0412/IMG_7774.JPG'
p5421
aS'0412/IMG_7775.JPG'
p5422
aS'0412/IMG_7776.JPG'
p5423
aS'0412/IMG_7777.JPG'
p5424
aS'0412/IMG_7778.JPG'
p5425
aS'0412/IMG_7779.JPG'
p5426
aS'0412/IMG_7780.JPG'
p5427
aS'0412/IMG_7781.JPG'
p5428
aS'0412/IMG_7782.JPG'
p5429
aS'0412/IMG_7783.JPG'
p5430
aS'0412/IMG_7784.JPG'
p5431
aS'0412/IMG_7785.JPG'
p5432
aa(lp5433
S'0413/0021.png'
p5434
aS'0413/0022.png'
p5435
aS'0413/0023.png'
p5436
aS'0413/0024.png'
p5437
aS'0413/0025.png'
p5438
aS'0413/0026.png'
p5439
aS'0413/0027.png'
p5440
aS'0413/0028.png'
p5441
aS'0413/0029.png'
p5442
aS'0413/0030.png'
p5443
aS'0413/0031.png'
p5444
aS'0413/0032.png'
p5445
aS'0413/0033.png'
p5446
aS'0413/0034.png'
p5447
aS'0413/0035.png'
p5448
aS'0413/0036.png'
p5449
aS'0413/0037.png'
p5450
aS'0413/0038.png'
p5451
aS'0413/0039.png'
p5452
aS'0413/0040.png'
p5453
aS'0413/0041.png'
p5454
aS'0413/0042.png'
p5455
aS'0413/0043.png'
p5456
aS'0413/0044.png'
p5457
aS'0413/0045.png'
p5458
aS'0413/0046.png'
p5459
aS'0413/0047.png'
p5460
aS'0413/0048.png'
p5461
aS'0413/0049.png'
p5462
aS'0413/0050.png'
p5463
aS'0413/0051.png'
p5464
aS'0413/0052.png'
p5465
aS'0413/0053.png'
p5466
aS'0413/0054.png'
p5467
aS'0413/0055.png'
p5468
aS'0413/0056.png'
p5469
aS'0413/0057.png'
p5470
aS'0413/0058.png'
p5471
aS'0413/0059.png'
p5472
aS'0413/0060.png'
p5473
aS'0413/0061.png'
p5474
aS'0413/0062.png'
p5475
aS'0413/0063.png'
p5476
aa(lp5477
S'0414/0001.png'
p5478
aS'0414/0006.png'
p5479
aS'0414/0011.png'
p5480
aS'0414/0016.png'
p5481
aS'0414/0021.png'
p5482
aS'0414/0026.png'
p5483
aS'0414/0031.png'
p5484
aS'0414/0035.png'
p5485
aS'0414/0036.png'
p5486
aS'0414/0037.png'
p5487
aS'0414/0038.png'
p5488
aS'0414/0039.png'
p5489
aS'0414/0040.png'
p5490
aS'0414/0041.png'
p5491
aS'0414/0042.png'
p5492
aS'0414/0043.png'
p5493
aS'0414/0046.png'
p5494
aS'0414/0051.png'
p5495
aS'0414/0056.png'
p5496
aS'0414/0062.png'
p5497
aS'0414/0068.png'
p5498
aS'0414/0073.png'
p5499
aS'0414/0076.png'
p5500
aS'0414/0081.png'
p5501
aS'0414/0086.png'
p5502
aS'0414/0091.png'
p5503
aS'0414/0096.png'
p5504
aS'0414/0101.png'
p5505
aS'0414/0106.png'
p5506
aS'0414/0111.png'
p5507
aS'0414/0116.png'
p5508
aS'0414/0121.png'
p5509
aS'0414/0126.png'
p5510
aS'0414/0141.png'
p5511
aa(lp5512
S'0415/0001.png'
p5513
aS'0415/0002.png'
p5514
aS'0415/0003.png'
p5515
aS'0415/0004.png'
p5516
aS'0415/0005.png'
p5517
aS'0415/0006.png'
p5518
aS'0415/0007.png'
p5519
aS'0415/0008.png'
p5520
aS'0415/0009.png'
p5521
aS'0415/0010.png'
p5522
aS'0415/0011.png'
p5523
aS'0415/0012.png'
p5524
aS'0415/0013.png'
p5525
aS'0415/0014.png'
p5526
aS'0415/0015.png'
p5527
aS'0415/0016.png'
p5528
aS'0415/0017.png'
p5529
aS'0415/0018.png'
p5530
aS'0415/0019.png'
p5531
aS'0415/0020.png'
p5532
aS'0415/0021.png'
p5533
aS'0415/0022.png'
p5534
aS'0415/0023.png'
p5535
aS'0415/0024.png'
p5536
aS'0415/0025.png'
p5537
aS'0415/0026.png'
p5538
aS'0415/0027.png'
p5539
aS'0415/0028.png'
p5540
aS'0415/0029.png'
p5541
aS'0415/0030.png'
p5542
aa(lp5543
S'0416/0001.png'
p5544
aS'0416/0006.png'
p5545
aS'0416/0011.png'
p5546
aS'0416/0016.png'
p5547
aS'0416/0021.png'
p5548
aS'0416/0026.png'
p5549
aS'0416/0031.png'
p5550
aS'0416/0036.png'
p5551
aS'0416/0041.png'
p5552
aS'0416/0046.png'
p5553
aS'0416/0051.png'
p5554
aS'0416/0056.png'
p5555
aS'0416/0061.png'
p5556
aS'0416/0066.png'
p5557
aS'0416/0071.png'
p5558
aS'0416/0076.png'
p5559
aS'0416/0081.png'
p5560
aS'0416/0086.png'
p5561
aS'0416/0091.png'
p5562
aS'0416/0096.png'
p5563
aS'0416/0101.png'
p5564
aS'0416/0106.png'
p5565
aS'0416/0111.png'
p5566
aS'0416/0116.png'
p5567
aS'0416/0121.png'
p5568
aS'0416/0126.png'
p5569
aS'0416/0131.png'
p5570
aS'0416/0136.png'
p5571
aS'0416/0141.png'
p5572
aS'0416/0146.png'
p5573
aS'0416/0151.png'
p5574
aS'0416/0156.png'
p5575
aS'0416/0161.png'
p5576
aS'0416/0166.png'
p5577
aS'0416/0171.png'
p5578
aS'0416/0176.png'
p5579
aS'0416/0181.png'
p5580
aa(lp5581
S'0417/0015.png'
p5582
aS'0417/0020.png'
p5583
aS'0417/0023.png'
p5584
aS'0417/0027.png'
p5585
aS'0417/0030.png'
p5586
aS'0417/0033.png'
p5587
aS'0417/0037.png'
p5588
aS'0417/0040.png'
p5589
aS'0417/0043.png'
p5590
aS'0417/0047.png'
p5591
aS'0417/0050.png'
p5592
aS'0417/0053.png'
p5593
aS'0417/0054.png'
p5594
aS'0417/0056.png'
p5595
aS'0417/0057.png'
p5596
aS'0417/0058.png'
p5597
aS'0417/0060.png'
p5598
aS'0417/0061.png'
p5599
aS'0417/0062.png'
p5600
aS'0417/0063.png'
p5601
aa(lp5602
S'0418/0032.png'
p5603
aS'0418/0033.png'
p5604
aS'0418/0034.png'
p5605
aS'0418/0035.png'
p5606
aS'0418/0036.png'
p5607
aS'0418/0037.png'
p5608
aS'0418/0038.png'
p5609
aS'0418/0039.png'
p5610
aS'0418/0040.png'
p5611
aS'0418/0041.png'
p5612
aS'0418/0042.png'
p5613
aS'0418/0043.png'
p5614
aS'0418/0044.png'
p5615
aS'0418/0045.png'
p5616
aS'0418/0046.png'
p5617
aS'0418/0047.png'
p5618
aS'0418/0048.png'
p5619
aa(lp5620
S'0419/0070.png'
p5621
aS'0419/0071.png'
p5622
aS'0419/0072.png'
p5623
aS'0419/0073.png'
p5624
aS'0419/0074.png'
p5625
aS'0419/0075.png'
p5626
aS'0419/0076.png'
p5627
aS'0419/0077.png'
p5628
aS'0419/0078.png'
p5629
aS'0419/0079.png'
p5630
aS'0419/0080.png'
p5631
aS'0419/0081.png'
p5632
aS'0419/0082.png'
p5633
aS'0419/0083.png'
p5634
aS'0419/0084.png'
p5635
aS'0419/0085.png'
p5636
aS'0419/0086.png'
p5637
aS'0419/0087.png'
p5638
aS'0419/0088.png'
p5639
aS'0419/0089.png'
p5640
aS'0419/0090.png'
p5641
aS'0419/0091.png'
p5642
aS'0419/0092.png'
p5643
aS'0419/0093.png'
p5644
aS'0419/0094.png'
p5645
aS'0419/0095.png'
p5646
aS'0419/0096.png'
p5647
aS'0419/0097.png'
p5648
aS'0419/0098.png'
p5649
aS'0419/0099.png'
p5650
aS'0419/0100.png'
p5651
aS'0419/0101.png'
p5652
aS'0419/0102.png'
p5653
aS'0419/0103.png'
p5654
aS'0419/0104.png'
p5655
aS'0419/0105.png'
p5656
aS'0419/0106.png'
p5657
aS'0419/0107.png'
p5658
aS'0419/0108.png'
p5659
aS'0419/0109.png'
p5660
aS'0419/0110.png'
p5661
aS'0419/0111.png'
p5662
aS'0419/0112.png'
p5663
aS'0419/0113.png'
p5664
aS'0419/0114.png'
p5665
aS'0419/0115.png'
p5666
aS'0419/0116.png'
p5667
aS'0419/0117.png'
p5668
aS'0419/0118.png'
p5669
aS'0419/0119.png'
p5670
aS'0419/0120.png'
p5671
aS'0419/0121.png'
p5672
aS'0419/0122.png'
p5673
aS'0419/0123.png'
p5674
aS'0419/0124.png'
p5675
aS'0419/0125.png'
p5676
aS'0419/0126.png'
p5677
aS'0419/0127.png'
p5678
aS'0419/0128.png'
p5679
aS'0419/0130.png'
p5680
aa(lp5681
S'0420/0001.png'
p5682
aS'0420/0004.png'
p5683
aS'0420/0008.png'
p5684
aS'0420/0011.png'
p5685
aS'0420/0014.png'
p5686
aS'0420/0018.png'
p5687
aS'0420/0021.png'
p5688
aS'0420/0024.png'
p5689
aS'0420/0028.png'
p5690
aS'0420/0031.png'
p5691
aS'0420/0034.png'
p5692
aS'0420/0038.png'
p5693
aS'0420/0041.png'
p5694
aS'0420/0044.png'
p5695
aS'0420/0048.png'
p5696
aS'0420/0051.png'
p5697
aS'0420/0054.png'
p5698
aS'0420/0058.png'
p5699
aS'0420/0061.png'
p5700
aS'0420/0064.png'
p5701
aS'0420/0068.png'
p5702
aS'0420/0071.png'
p5703
aS'0420/0074.png'
p5704
aS'0420/0078.png'
p5705
aS'0420/0081.png'
p5706
aS'0420/0084.png'
p5707
aS'0420/0088.png'
p5708
aS'0420/0091.png'
p5709
aa(lp5710
S'0421/0001.png'
p5711
aS'0421/0004.png'
p5712
aS'0421/0008.png'
p5713
aS'0421/0011.png'
p5714
aS'0421/0014.png'
p5715
aS'0421/0018.png'
p5716
aS'0421/0021.png'
p5717
aS'0421/0024.png'
p5718
aS'0421/0028.png'
p5719
aS'0421/0031.png'
p5720
aS'0421/0034.png'
p5721
aS'0421/0038.png'
p5722
aS'0421/0041.png'
p5723
aS'0421/0044.png'
p5724
aS'0421/0048.png'
p5725
aS'0421/0051.png'
p5726
aS'0421/0054.png'
p5727
aS'0421/0058.png'
p5728
aS'0421/0061.png'
p5729
aS'0421/0064.png'
p5730
aS'0421/0068.png'
p5731
aS'0421/0071.png'
p5732
aS'0421/0074.png'
p5733
aS'0421/0078.png'
p5734
aS'0421/0081.png'
p5735
aS'0421/0084.png'
p5736
aS'0421/0088.png'
p5737
aS'0421/0091.png'
p5738
aa(lp5739
S'0422/0001.png'
p5740
aS'0422/0002.png'
p5741
aS'0422/0003.png'
p5742
aS'0422/0004.png'
p5743
aS'0422/0005.png'
p5744
aS'0422/0006.png'
p5745
aS'0422/0007.png'
p5746
aS'0422/0008.png'
p5747
aS'0422/0009.png'
p5748
aS'0422/0011.png'
p5749
aS'0422/0013.png'
p5750
aS'0422/0015.png'
p5751
aa(lp5752
S'0423/0001.png'
p5753
aS'0423/0003.png'
p5754
aS'0423/0004.png'
p5755
aS'0423/0008.png'
p5756
aS'0423/0011.png'
p5757
aS'0423/0014.png'
p5758
aS'0423/0018.png'
p5759
aS'0423/0020.png'
p5760
aS'0423/0021.png'
p5761
aS'0423/0024.png'
p5762
aS'0423/0028.png'
p5763
aS'0423/0031.png'
p5764
aS'0423/0032.png'
p5765
aa(lp5766
S'0424/0001 (copy).png'
p5767
aS'0424/0001.png'
p5768
aS'0424/0002.png'
p5769
aS'0424/0003.png'
p5770
aS'0424/0004.png'
p5771
aS'0424/0005.png'
p5772
aS'0424/0006.png'
p5773
aS'0424/0007.png'
p5774
aS'0424/0011.png'
p5775
aS'0424/0014.png'
p5776
aS'0424/0021.png'
p5777
aa(lp5778
S'0425/0001.png'
p5779
aS'0425/0002.png'
p5780
aS'0425/0003.png'
p5781
aS'0425/0004.png'
p5782
aS'0425/0005 (copy).png'
p5783
aS'0425/0005.png'
p5784
aS'0425/0006 (copy).png'
p5785
aS'0425/0006.png'
p5786
aS'0425/0007.png'
p5787
aS'0425/0024.png'
p5788
aS'0425/0032.png'
p5789
aS'0425/0037.png'
p5790
aS'0425/0041.png'
p5791
aS'0425/0047.png'
p5792
aS'0425/0054.png'
p5793
aa(lp5794
S'0426/0001.png'
p5795
aS'0426/0010.png'
p5796
aS'0426/0021.png'
p5797
aS'0426/0022.png'
p5798
aS'0426/0023.png'
p5799
aS'0426/0024.png'
p5800
aS'0426/0025.png'
p5801
aS'0426/0026.png'
p5802
aS'0426/0027.png'
p5803
aS'0426/0028.png'
p5804
aS'0426/0029.png'
p5805
aS'0426/0030.png'
p5806
aS'0426/0043.png'
p5807
aS'0426/0058.png'
p5808
aa(lp5809
S'0427/0001.png'
p5810
aS'0427/0009.png'
p5811
aS'0427/0010.png'
p5812
aS'0427/0011.png'
p5813
aS'0427/0012.png'
p5814
aS'0427/0013.png'
p5815
aS'0427/0014.png'
p5816
aS'0427/0015.png'
p5817
aS'0427/0016.png'
p5818
aS'0427/0017.png'
p5819
aS'0427/0018.png'
p5820
aS'0427/0019.png'
p5821
aS'0427/0020.png'
p5822
aS'0427/0021.png'
p5823
aS'0427/0022.png'
p5824
aS'0427/0023.png'
p5825
aS'0427/0024.png'
p5826
aS'0427/0025.png'
p5827
aS'0427/0027.png'
p5828
aS'0427/0031.png'
p5829
aS'0427/0034.png'
p5830
aS'0427/0037.png'
p5831
aS'0427/0041.png'
p5832
aa(lp5833
S'0428/0001.png'
p5834
aS'0428/0011.png'
p5835
aS'0428/0014.png'
p5836
aS'0428/0021.png'
p5837
aS'0428/0024.png'
p5838
aS'0428/0027.png'
p5839
aS'0428/0031.png'
p5840
aS'0428/0034.png'
p5841
aS'0428/0037.png'
p5842
aS'0428/0041.png'
p5843
aS'0428/0044.png'
p5844
aS'0428/0047.png'
p5845
aS'0428/0048.png'
p5846
aS'0428/0049.png'
p5847
aS'0428/0050.png'
p5848
aS'0428/0051.png'
p5849
aS'0428/0052.png'
p5850
aS'0428/0053.png'
p5851
aS'0428/0054.png'
p5852
aS'0428/0057.png'
p5853
aS'0428/0061.png'
p5854
aa(lp5855
S'0429/0001.png'
p5856
aS'0429/0007.png'
p5857
aS'0429/0011.png'
p5858
aS'0429/0017.png'
p5859
aS'0429/0021.png'
p5860
aS'0429/0023.png'
p5861
aS'0429/0025.png'
p5862
aS'0429/0027.png'
p5863
aS'0429/0031.png'
p5864
aS'0429/0041.png'
p5865
aS'0429/0043.png'
p5866
aS'0429/0064.png'
p5867
aS'0429/0067.png'
p5868
aS'0429/0074.png'
p5869
aS'0429/0077.png'
p5870
aS'0429/0081.png'
p5871
aS'0429/0083.png'
p5872
aS'0429/0085.png'
p5873
aS'0429/0086.png'
p5874
aS'0429/0087.png'
p5875
aS'0429/0091.png'
p5876
aS'0429/0097.png'
p5877
aS'0429/0101.png'
p5878
aS'0429/0107.png'
p5879
aa(lp5880
S'0430/0001.png'
p5881
aS'0430/0009.png'
p5882
aS'0430/0011.png'
p5883
aS'0430/0015.png'
p5884
aS'0430/0016.png'
p5885
aS'0430/0017.png'
p5886
aS'0430/0018.png'
p5887
aS'0430/0019.png'
p5888
aS'0430/0020.png'
p5889
aS'0430/0025.png'
p5890
aS'0430/0026.png'
p5891
aS'0430/0028.png'
p5892
aS'0430/0029.png'
p5893
aS'0430/0030.png'
p5894
aS'0430/0031.png'
p5895
aS'0430/0032.png'
p5896
aS'0430/0033.png'
p5897
aS'0430/0034.png'
p5898
aS'0430/0035.png'
p5899
aS'0430/0036.png'
p5900
aS'0430/0037.png'
p5901
aS'0430/0038.png'
p5902
aS'0430/0039.png'
p5903
aS'0430/0040.png'
p5904
aS'0430/0047.png'
p5905
aS'0430/0057.png'
p5906
aS'0430/0058.png'
p5907
aS'0430/0066.png'
p5908
aS'0430/0069.png'
p5909
aS'0430/0071.png'
p5910
aS'0430/0101.png'
p5911
aS'0430/0111.png'
p5912
aS'0430/0121.png'
p5913
aa(lp5914
S'0431/0001.png'
p5915
aS'0431/0007.png'
p5916
aS'0431/0011.png'
p5917
aS'0431/0017.png'
p5918
aS'0431/0019.png'
p5919
aS'0431/0020.png'
p5920
aS'0431/0021.png'
p5921
aS'0431/0022.png'
p5922
aS'0431/0023.png'
p5923
aS'0431/0024.png'
p5924
aS'0431/0025.png'
p5925
aS'0431/0026.png'
p5926
aS'0431/0027.png'
p5927
aS'0431/0028.png'
p5928
aS'0431/0029.png'
p5929
aS'0431/0030.png'
p5930
aS'0431/0031.png'
p5931
aS'0431/0032.png'
p5932
aS'0431/0033.png'
p5933
aS'0431/0034.png'
p5934
aS'0431/0035.png'
p5935
aS'0431/0037.png'
p5936
aS'0431/0041.png'
p5937
aS'0431/0047.png'
p5938
aS'0431/0051.png'
p5939
aS'0431/0057.png'
p5940
aS'0431/0061.png'
p5941
aS'0431/0067.png'
p5942
aS'0431/0071.png'
p5943
aa(lp5944
S'0432/0001.png'
p5945
aS'0432/0004.png'
p5946
aS'0432/0007.png'
p5947
aS'0432/0011.png'
p5948
aS'0432/0014.png'
p5949
aS'0432/0017.png'
p5950
aS'0432/0021.png'
p5951
aS'0432/0024.png'
p5952
aS'0432/0027.png'
p5953
aS'0432/0028.png'
p5954
aS'0432/0031.png'
p5955
aS'0432/0033.png'
p5956
aS'0432/0036.png'
p5957
aS'0432/0037.png'
p5958
aS'0432/0041.png'
p5959
aS'0432/0044.png'
p5960
aS'0432/0047.png'
p5961
aS'0432/0051.png'
p5962
aS'0432/0054.png'
p5963
aS'0432/0057.png'
p5964
aS'0432/0061.png'
p5965
aa(lp5966
S'0433/0001.png'
p5967
aS'0433/0006.png'
p5968
aS'0433/0011.png'
p5969
aS'0433/0016.png'
p5970
aS'0433/0021.png'
p5971
aS'0433/0026.png'
p5972
aS'0433/0031.png'
p5973
aS'0433/0033.png'
p5974
aS'0433/0034.png'
p5975
aS'0433/0035.png'
p5976
aS'0433/0036.png'
p5977
aS'0433/0037.png'
p5978
aS'0433/0038.png'
p5979
aS'0433/0039.png'
p5980
aS'0433/0040.png'
p5981
aS'0433/0041.png'
p5982
aS'0433/0042.png'
p5983
aS'0433/0043.png'
p5984
aS'0433/0044.png'
p5985
aS'0433/0045.png'
p5986
aS'0433/0046.png'
p5987
aS'0433/0047.png'
p5988
aS'0433/0048.png'
p5989
aS'0433/0051.png'
p5990
aS'0433/0056.png'
p5991
aS'0433/0061.png'
p5992
aa(lp5993
S'0434/0001.png'
p5994
aS'0434/0011.png'
p5995
aS'0434/0016.png'
p5996
aS'0434/0020.png'
p5997
aS'0434/0021.png'
p5998
aS'0434/0024.png'
p5999
aS'0434/0026.png'
p6000
aS'0434/0031.png'
p6001
aS'0434/0036.png'
p6002
aS'0434/0041.png'
p6003
aS'0434/0046.png'
p6004
aS'0434/0051.png'
p6005
aa(lp6006
S'0435/0001.png'
p6007
aS'0435/0002 (10th copy).png'
p6008
aS'0435/0002 (11th copy).png'
p6009
aS'0435/0002 (12th copy).png'
p6010
aS'0435/0002 (13th copy).png'
p6011
aS'0435/0002 (14th copy).png'
p6012
aS'0435/0002 (15th copy).png'
p6013
aS'0435/0002 (16th copy).png'
p6014
aS'0435/0002 (17th copy).png'
p6015
aS'0435/0002 (18th copy).png'
p6016
aS'0435/0002 (19th copy).png'
p6017
aS'0435/0002 (20th copy).png'
p6018
aS'0435/0002 (3rd copy).png'
p6019
aS'0435/0002 (4th copy).png'
p6020
aS'0435/0002 (5th copy).png'
p6021
aS'0435/0002 (6th copy).png'
p6022
aS'0435/0002 (7th copy).png'
p6023
aS'0435/0002 (8th copy).png'
p6024
aS'0435/0002 (9th copy).png'
p6025
aS'0435/0002.png'
p6026
aS'0435/0003.png'
p6027
aS'0435/0004.png'
p6028
aS'0435/0006.png'
p6029
aS'0435/0007.png'
p6030
aS'0435/0010.png'
p6031
aS'0435/0011.png'
p6032
aS'0435/0014.png'
p6033
aS'0435/0017.png'
p6034
aS'0435/0021.png'
p6035
aS'0435/0024.png'
p6036
aS'0435/0027.png'
p6037
aS'0435/0031.png'
p6038
aS'0435/0034.png'
p6039
aS'0435/0041.png'
p6040
aS'0435/0051.png'
p6041
aS'0435/0054.png'
p6042
aS'0435/0057.png'
p6043
aS'0435/0061.png'
p6044
aS'0435/0064.png'
p6045
aa(lp6046
S'0436/0001.png'
p6047
aS'0436/0004.png'
p6048
aS'0436/0007.png'
p6049
aS'0436/0009.png'
p6050
aS'0436/0011.png'
p6051
aS'0436/0014.png'
p6052
aS'0436/0017.png'
p6053
aS'0436/0021.png'
p6054
aS'0436/0024.png'
p6055
aS'0436/0027.png'
p6056
aS'0436/0031.png'
p6057
aS'0436/0034.png'
p6058
aS'0436/0037.png'
p6059
aS'0436/0041.png'
p6060
aS'0436/0044.png'
p6061
aS'0436/0047.png'
p6062
aS'0436/0051.png'
p6063
aS'0436/0054.png'
p6064
aa(lp6065
S'0437/0001.png'
p6066
aS'0437/0004.png'
p6067
aS'0437/0007.png'
p6068
aS'0437/0009.png'
p6069
aS'0437/0011.png'
p6070
aS'0437/0014.png'
p6071
aS'0437/0017.png'
p6072
aS'0437/0019.png'
p6073
aS'0437/0021.png'
p6074
aS'0437/0024.png'
p6075
aS'0437/0025.png'
p6076
aS'0437/0027.png'
p6077
aS'0437/0031.png'
p6078
aS'0437/0034.png'
p6079
aS'0437/0037.png'
p6080
aS'0437/0041.png'
p6081
aS'0437/0044.png'
p6082
aS'0437/0047.png'
p6083
aS'0437/0051.png'
p6084
aS'0437/0054.png'
p6085
aS'0437/0057.png'
p6086
aS'0437/0061.png'
p6087
aS'0437/0064.png'
p6088
aS'0437/0067.png'
p6089
aS'0437/0071.png'
p6090
aa(lp6091
S'0438/0001.png'
p6092
aS'0438/0004.png'
p6093
aS'0438/0007.png'
p6094
aS'0438/0022.png'
p6095
aS'0438/0023.png'
p6096
aS'0438/0024.png'
p6097
aS'0438/0025.png'
p6098
aS'0438/0026.png'
p6099
aS'0438/0027.png'
p6100
aS'0438/0028.png'
p6101
aS'0438/0037.png'
p6102
aS'0438/0040.png'
p6103
aS'0438/0041.png'
p6104
aS'0438/0042.png'
p6105
aS'0438/0043.png'
p6106
aS'0438/0044.png'
p6107
aS'0438/0054.png'
p6108
aS'0438/0064.png'
p6109
aS'0438/0067.png'
p6110
aS'0438/0071.png'
p6111
aS'0438/0074.png'
p6112
aS'0438/0077.png'
p6113
aS'0438/0081.png'
p6114
aS'0438/0084.png'
p6115
aa(lp6116
S'0439/0001.png'
p6117
aS'0439/0004.png'
p6118
aS'0439/0007.png'
p6119
aS'0439/0008.png'
p6120
aS'0439/0009.png'
p6121
aS'0439/0010.png'
p6122
aS'0439/0011.png'
p6123
aS'0439/0012.png'
p6124
aS'0439/0014.png'
p6125
aS'0439/0017.png'
p6126
aS'0439/0021.png'
p6127
aS'0439/0024.png'
p6128
aS'0439/0026.png'
p6129
aS'0439/0027.png'
p6130
aS'0439/0028.png'
p6131
aS'0439/0031.png'
p6132
aS'0439/0034.png'
p6133
aS'0439/0037.png'
p6134
aS'0439/0041.png'
p6135
aS'0439/0044.png'
p6136
aS'0439/0047.png'
p6137
aS'0439/0051.png'
p6138
aS'0439/0054.png'
p6139
aS'0439/0057.png'
p6140
aS'0439/0061.png'
p6141
aS'0439/0064.png'
p6142
aS'0439/0067.png'
p6143
aS'0439/0071.png'
p6144
aS'0439/0074.png'
p6145
aS'0439/0081.png'
p6146
aS'0439/0084.png'
p6147
aS'0439/0091.png'
p6148
aS'0439/0094.png'
p6149
aa(lp6150
S'0440/0005.png'
p6151
aS'0440/0008.png'
p6152
aS'0440/0011.png'
p6153
aS'0440/0015.png'
p6154
aS'0440/0017.png'
p6155
aS'0440/0018.png'
p6156
aS'0440/0019.png'
p6157
aS'0440/0020.png'
p6158
aS'0440/0021.png'
p6159
aS'0440/0022.png'
p6160
aS'0440/0023.png'
p6161
aS'0440/0026.png'
p6162
aS'0440/0028.png'
p6163
aS'0440/0030.png'
p6164
aS'0440/0032.png'
p6165
aa(lp6166
S'0441/0001.png'
p6167
aS'0441/0002.png'
p6168
aS'0441/0003.png'
p6169
aS'0441/0005.png'
p6170
aS'0441/0006.png'
p6171
aS'0441/0007.png'
p6172
aS'0441/0008.png'
p6173
aS'0441/0009.png'
p6174
aS'0441/0010.png'
p6175
aS'0441/0011.png'
p6176
aS'0441/0012.png'
p6177
aS'0441/0013.png'
p6178
aS'0441/0019.png'
p6179
aS'0441/0020.png'
p6180
aS'0441/0021.png'
p6181
aS'0441/0022.png'
p6182
aS'0441/0024.png'
p6183
aS'0441/0027.png'
p6184
aS'0441/0029.png'
p6185
aS'0441/0032.png'
p6186
aS'0441/0043.png'
p6187
aS'0441/0052.png'
p6188
aS'0441/0054.png'
p6189
aS'0441/0063.png'
p6190
aS'0441/0064.png'
p6191
aS'0441/0067.png'
p6192
aS'0441/0070.png'
p6193
aS'0441/0074.png'
p6194
aS'0441/0076.png'
p6195
aS'0441/0077.png'
p6196
aS'0441/0079.png'
p6197
aS'0441/0082.png'
p6198
aS'0441/0083.png'
p6199
aS'0441/0084.png'
p6200
aS'0441/0085.png'
p6201
aS'0441/0086.png'
p6202
aS'0441/0088.png'
p6203
aS'0441/0089.png'
p6204
aS'0441/0090.png'
p6205
aS'0441/0091.png'
p6206
aS'0441/0092.png'
p6207
aS'0441/0093.png'
p6208
aS'0441/0094.png'
p6209
aS'0441/0095.png'
p6210
aS'0441/0096.png'
p6211
aS'0441/0098.png'
p6212
aS'0441/0099.png'
p6213
aS'0441/0100.png'
p6214
aa(lp6215
S'0442/0001.png'
p6216
aS'0442/0004.png'
p6217
aS'0442/0007.png'
p6218
aS'0442/0011.png'
p6219
aS'0442/0014.png'
p6220
aS'0442/0017.png'
p6221
aS'0442/0021.png'
p6222
aS'0442/0024.png'
p6223
aS'0442/0027.png'
p6224
aS'0442/0031.png'
p6225
aS'0442/0034.png'
p6226
aS'0442/0037.png'
p6227
aS'0442/0041.png'
p6228
aS'0442/0044.png'
p6229
aS'0442/0047.png'
p6230
aS'0442/0051.png'
p6231
aS'0442/0054.png'
p6232
aS'0442/0057.png'
p6233
aS'0442/0061.png'
p6234
aS'0442/0064.png'
p6235
aS'0442/0067.png'
p6236
aS'0442/0071.png'
p6237
aS'0442/0074.png'
p6238
aS'0442/0077.png'
p6239
aS'0442/0080.png'
p6240
aS'0442/0081.png'
p6241
aa(lp6242
S'0443/0004.png'
p6243
aS'0443/0011.png'
p6244
aS'0443/0014.png'
p6245
aS'0443/0017.png'
p6246
aS'0443/0021.png'
p6247
aS'0443/0024.png'
p6248
aS'0443/0027.png'
p6249
aS'0443/0031.png'
p6250
aS'0443/0034.png'
p6251
aS'0443/0037.png'
p6252
aS'0443/0041.png'
p6253
aS'0443/0044.png'
p6254
aS'0443/0047.png'
p6255
aS'0443/0051.png'
p6256
aS'0443/0054.png'
p6257
aS'0443/0057.png'
p6258
aS'0443/0061.png'
p6259
aS'0443/0064.png'
p6260
aS'0443/0067.png'
p6261
aS'0443/0068.png'
p6262
aS'0443/0071.png'
p6263
aS'0443/0074.png'
p6264
aS'0443/0077.png'
p6265
aa(lp6266
S'0444/0001.png'
p6267
aS'0444/0011.png'
p6268
aS'0444/0015.png'
p6269
aS'0444/0017.png'
p6270
aS'0444/0018.png'
p6271
aS'0444/0019.png'
p6272
aS'0444/0021.png'
p6273
aS'0444/0025.png'
p6274
aS'0444/0031.png'
p6275
aS'0444/0035.png'
p6276
aS'0444/0041.png'
p6277
aa(lp6278
S'0445/0001.png'
p6279
aS'0445/0006.png'
p6280
aS'0445/0011.png'
p6281
aS'0445/0016.png'
p6282
aS'0445/0020.png'
p6283
aS'0445/0021.png'
p6284
aS'0445/0023.png'
p6285
aS'0445/0024.png'
p6286
aS'0445/0025.png'
p6287
aS'0445/0026.png'
p6288
aS'0445/0028.png'
p6289
aS'0445/0038.png'
p6290
aS'0445/0039.png'
p6291
aS'0445/0040.png'
p6292
aS'0445/0041.png'
p6293
aS'0445/0051.png'
p6294
aS'0445/0061.png'
p6295
aa(lp6296
S'0446/0001.png'
p6297
aS'0446/0004.png'
p6298
aS'0446/0008.png'
p6299
aS'0446/0011.png'
p6300
aS'0446/0014.png'
p6301
aS'0446/0018.png'
p6302
aS'0446/0021.png'
p6303
aS'0446/0024.png'
p6304
aS'0446/0025.png'
p6305
aS'0446/0028.png'
p6306
aS'0446/0031.png'
p6307
aS'0446/0034.png'
p6308
aS'0446/0038.png'
p6309
aS'0446/0041.png'
p6310
aS'0446/0044.png'
p6311
aa(lp6312
S'0447/0001.png'
p6313
aS'0447/0005.png'
p6314
aS'0447/0008.png'
p6315
aS'0447/0011.png'
p6316
aS'0447/0015.png'
p6317
aS'0447/0018.png'
p6318
aS'0447/0021.png'
p6319
aS'0447/0025.png'
p6320
aS'0447/0028.png'
p6321
aS'0447/0031.png'
p6322
aa(lp6323
S'0448/0001.png'
p6324
aS'0448/0006.png'
p6325
aS'0448/0011.png'
p6326
aS'0448/0016.png'
p6327
aS'0448/0021.png'
p6328
aS'0448/0026.png'
p6329
aS'0448/0031.png'
p6330
aS'0448/0036.png'
p6331
aS'0448/0041.png'
p6332
aS'0448/0046.png'
p6333
aS'0448/0051.png'
p6334
aS'0448/0056.png'
p6335
aS'0448/0061.png'
p6336
aS'0448/0066.png'
p6337
aS'0448/0071.png'
p6338
aS'0448/0076.png'
p6339
aS'0448/0081.png'
p6340
aS'0448/0086.png'
p6341
aS'0448/0091.png'
p6342
aS'0448/0096.png'
p6343
aS'0448/0101.png'
p6344
aS'0448/0106.png'
p6345
aS'0448/0111.png'
p6346
aS'0448/0116.png'
p6347
aS'0448/0121.png'
p6348
aa(lp6349
S'0449/0016 (another copy).png'
p6350
aS'0449/0016.png'
p6351
aS'0449/0017.png'
p6352
aS'0449/0018.png'
p6353
aS'0449/0019.png'
p6354
aS'0449/0020.png'
p6355
aS'0449/0021.png'
p6356
aS'0449/0022.png'
p6357
aS'0449/0023.png'
p6358
aS'0449/0024.png'
p6359
aS'0449/0025.png'
p6360
aS'0449/0026.png'
p6361
aS'0449/0027.png'
p6362
aS'0449/0028.png'
p6363
aS'0449/0029.png'
p6364
aS'0449/0030.png'
p6365
aa(lp6366
S'0450/0031 (12th copy).png'
p6367
aS'0450/0031.png'
p6368
aS'0450/0032.png'
p6369
aS'0450/0033.png'
p6370
aS'0450/0034.png'
p6371
aS'0450/0035.png'
p6372
aS'0450/0036.png'
p6373
aS'0450/0037.png'
p6374
aS'0450/0038.png'
p6375
aS'0450/0039.png'
p6376
aS'0450/0040.png'
p6377
aS'0450/0041.png'
p6378
aS'0450/0042.png'
p6379
aS'0450/0043.png'
p6380
aS'0450/0044.png'
p6381
aS'0450/0045.png'
p6382
aS'0450/0046.png'
p6383
aS'0450/0047.png'
p6384
aS'0450/0048.png'
p6385
aa(lp6386
S'0451/0049.png'
p6387
aS'0451/0050.png'
p6388
aS'0451/0051.png'
p6389
aS'0451/0052.png'
p6390
aS'0451/0053.png'
p6391
aS'0451/0054.png'
p6392
aS'0451/0055.png'
p6393
aS'0451/0056.png'
p6394
aS'0451/0057.png'
p6395
aS'0451/0058.png'
p6396
aa(lp6397
S'0452/0059.png'
p6398
aS'0452/0060.png'
p6399
aS'0452/0061.png'
p6400
aS'0452/0062.png'
p6401
aS'0452/0063.png'
p6402
aS'0452/0064.png'
p6403
aS'0452/0065.png'
p6404
aS'0452/0066.png'
p6405
aS'0452/0067.png'
p6406
aS'0452/0068.png'
p6407
aS'0452/0069.png'
p6408
aS'0452/0070.png'
p6409
aa(lp6410
S'0453/0076.png'
p6411
aS'0453/0077.png'
p6412
aS'0453/0078.png'
p6413
aS'0453/0079.png'
p6414
aS'0453/0080.png'
p6415
aS'0453/0081.png'
p6416
aS'0453/0082.png'
p6417
aS'0453/0083.png'
p6418
aS'0453/0084.png'
p6419
aS'0453/0085.png'
p6420
aS'0453/0086.png'
p6421
aS'0453/0087.png'
p6422
aS'0453/0088.png'
p6423
aS'0453/0089.png'
p6424
aS'0453/0090.png'
p6425
aS'0453/0091.png'
p6426
aS'0453/0092.png'
p6427
aS'0453/0093.png'
p6428
aS'0453/0094.png'
p6429
aS'0453/0095.png'
p6430
aS'0453/0096.png'
p6431
aa(lp6432
S'0454/0102.png'
p6433
aS'0454/0103.png'
p6434
aS'0454/0104.png'
p6435
aS'0454/0105.png'
p6436
aS'0454/0106.png'
p6437
aS'0454/0107.png'
p6438
aS'0454/0108.png'
p6439
aS'0454/0109.png'
p6440
aS'0454/0110.png'
p6441
aS'0454/0111.png'
p6442
aS'0454/0112.png'
p6443
aS'0454/0113.png'
p6444
aS'0454/0114.png'
p6445
aS'0454/0115.png'
p6446
aa(lp6447
S'0455/0124.png'
p6448
aS'0455/0125.png'
p6449
aS'0455/0126.png'
p6450
aS'0455/0127.png'
p6451
aS'0455/0128.png'
p6452
aS'0455/0129.png'
p6453
aS'0455/0130.png'
p6454
aS'0455/0131.png'
p6455
aS'0455/0132.png'
p6456
aS'0455/0133.png'
p6457
aS'0455/0134.png'
p6458
aS'0455/0135.png'
p6459
aS'0455/0136.png'
p6460
aS'0455/0137.png'
p6461
aa(lp6462
S'0456/0138.png'
p6463
aS'0456/0139.png'
p6464
aS'0456/0140.png'
p6465
aS'0456/0141.png'
p6466
aS'0456/0142.png'
p6467
aS'0456/0143.png'
p6468
aS'0456/0144.png'
p6469
aS'0456/0145.png'
p6470
aS'0456/0146.png'
p6471
aS'0456/0147.png'
p6472
aS'0456/0148.png'
p6473
aS'0456/0149.png'
p6474
aa(lp6475
S'0460/0001.png'
p6476
aS'0460/0010.png'
p6477
aS'0460/0011.png'
p6478
aS'0460/0023.png'
p6479
aS'0460/0034.png'
p6480
aS'0460/0035.png'
p6481
aS'0460/0036.png'
p6482
aS'0460/0038.png'
p6483
aS'0460/0042.png'
p6484
aS'0460/0043.png'
p6485
aS'0460/0044.png'
p6486
aS'0460/0055.png'
p6487
aa(lp6488
S'0461/0001.png'
p6489
aS'0461/0002.png'
p6490
aS'0461/0004.png'
p6491
aS'0461/0006.png'
p6492
aS'0461/0011.png'
p6493
aS'0461/0015.png'
p6494
aS'0461/0017.png'
p6495
aS'0461/0018.png'
p6496
aS'0461/0019.png'
p6497
aS'0461/0021.png'
p6498
aS'0461/0023.png'
p6499
aS'0461/0025.png'
p6500
aS'0461/0026.png'
p6501
aS'0461/0031.png'
p6502
aS'0461/0036.png'
p6503
aS'0461/0040.png'
p6504
aS'0461/0041.png'
p6505
aS'0461/0051.png'
p6506
aS'0461/0064.png'
p6507
aa(lp6508
S'0462/0001.png'
p6509
aS'0462/0002.png'
p6510
aS'0462/0003.png'
p6511
aS'0462/0004.png'
p6512
aS'0462/0005.png'
p6513
aS'0462/0006.png'
p6514
aS'0462/0007.png'
p6515
aS'0462/0008.png'
p6516
aS'0462/0009.png'
p6517
aS'0462/0011.png'
p6518
aS'0462/0018.png'
p6519
aS'0462/0034.png'
p6520
aS'0462/0037.png'
p6521
aS'0462/0042.png'
p6522
aS'0462/0043.png'
p6523
aS'0462/0044.png'
p6524
aS'0462/0045.png'
p6525
aS'0462/0047.png'
p6526
aS'0462/0050.png'
p6527
aS'0462/0052.png'
p6528
aS'0462/0058.png'
p6529
aS'0462/0061.png'
p6530
aS'0462/0062.png'
p6531
aS'0462/0068.png'
p6532
aS'0462/0077.png'
p6533
aa(lp6534
S'0464/0001.png'
p6535
aS'0464/0014.png'
p6536
aS'0464/0015.png'
p6537
aS'0464/0021.png'
p6538
aS'0464/0040.png'
p6539
aS'0464/0043.png'
p6540
aa(lp6541
S'0465/0001.png'
p6542
aS'0465/0013.png'
p6543
aS'0465/0014.png'
p6544
aS'0465/0015.png'
p6545
aS'0465/0016.png'
p6546
aS'0465/0017.png'
p6547
aS'0465/0018.png'
p6548
aS'0465/0019.png'
p6549
aS'0465/0020.png'
p6550
aS'0465/0021.png'
p6551
aS'0465/0022.png'
p6552
aS'0465/0023.png'
p6553
aS'0465/0026.png'
p6554
aS'0465/0041.png'
p6555
aS'0465/0044.png'
p6556
aS'0465/0050.png'
p6557
aS'0465/0058.png'
p6558
aS'0465/0064.png'
p6559
aa(lp6560
S'0466/0001.png'
p6561
aS'0466/0011.png'
p6562
aS'0466/0017.png'
p6563
aS'0466/0018.png'
p6564
aS'0466/0019.png'
p6565
aS'0466/0020.png'
p6566
aS'0466/0021.png'
p6567
aS'0466/0022.png'
p6568
aS'0466/0023.png'
p6569
aS'0466/0024.png'
p6570
aS'0466/0031.png'
p6571
aS'0466/0036.png'
p6572
aS'0466/0041.png'
p6573
aS'0466/0051.png'
p6574
aS'0466/0060.png'
p6575
aS'0466/0068.png'
p6576
aa(lp6577
S'0467/0001.png'
p6578
aS'0467/0017.png'
p6579
aS'0467/0018.png'
p6580
aS'0467/0031.png'
p6581
aS'0467/0032.png'
p6582
aa(lp6583
S'0468/0001.png'
p6584
aS'0468/0018.png'
p6585
aS'0468/0020.png'
p6586
aS'0468/0021.png'
p6587
aS'0468/0026.png'
p6588
aS'0468/0030.png'
p6589
aS'0468/0044.png'
p6590
aS'0468/0047.png'
p6591
aS'0468/0049.png'
p6592
aS'0468/0070.png'
p6593
aa(lp6594
S'0469/0001.png'
p6595
aS'0469/0004.png'
p6596
aS'0469/0010.png'
p6597
aS'0469/0011.png'
p6598
aS'0469/0012.png'
p6599
aS'0469/0027.png'
p6600
aS'0469/0047.png'
p6601
aS'0469/0048.png'
p6602
aS'0469/0052.png'
p6603
aa(lp6604
S'0470/0001.png'
p6605
aS'0470/0004.png'
p6606
aS'0470/0008.png'
p6607
aS'0470/0011.png'
p6608
aS'0470/0014.png'
p6609
aS'0470/0018.png'
p6610
aS'0470/0024.png'
p6611
aS'0470/0034.png'
p6612
aS'0470/0051.png'
p6613
aS'0470/0054.png'
p6614
aS'0470/0068.png'
p6615
aS'0470/0074.png'
p6616
aS'0470/0077.png'
p6617
aS'0470/0078.png'
p6618
aS'0470/0082.png'
p6619
aa(lp6620
S'0471/0001.png'
p6621
aS'0471/0011.png'
p6622
aS'0471/0021.png'
p6623
aS'0471/0031.png'
p6624
aS'0471/0035.png'
p6625
aS'0471/0036.png'
p6626
aS'0471/0038.png'
p6627
aS'0471/0039.png'
p6628
aS'0471/0040.png'
p6629
aS'0471/0041.png'
p6630
aS'0471/0042.png'
p6631
aS'0471/0043.png'
p6632
aS'0471/0044.png'
p6633
aS'0471/0045.png'
p6634
aS'0471/0046.png'
p6635
aS'0471/0051.png'
p6636
aS'0471/0058.png'
p6637
aS'0471/0061.png'
p6638
aa(lp6639
S'0472/0001.png'
p6640
aS'0472/0010.png'
p6641
aS'0472/0011.png'
p6642
aS'0472/0012.png'
p6643
aS'0472/0013.png'
p6644
aS'0472/0020.png'
p6645
aS'0472/0026.png'
p6646
aS'0472/0027.png'
p6647
aS'0472/0028.png'
p6648
aS'0472/0029.png'
p6649
aa(lp6650
S'0473/0001.png'
p6651
aS'0473/0012.png'
p6652
aS'0473/0013.png'
p6653
aS'0473/0014.png'
p6654
aS'0473/0015.png'
p6655
aS'0473/0036.png'
p6656
aS'0473/0037.png'
p6657
aS'0473/0040.png'
p6658
aS'0473/0048.png'
p6659
aa(lp6660
S'0474/0001.png'
p6661
aS'0474/0016.png'
p6662
aS'0474/0017.png'
p6663
aS'0474/0018.png'
p6664
aS'0474/0019.png'
p6665
aS'0474/0020.png'
p6666
aS'0474/0027.png'
p6667
aS'0474/0028.png'
p6668
aS'0474/0029.png'
p6669
aS'0474/0030.png'
p6670
aS'0474/0031.png'
p6671
aS'0474/0033.png'
p6672
aS'0474/0035.png'
p6673
aS'0474/0036.png'
p6674
aS'0474/0037.png'
p6675
aS'0474/0038.png'
p6676
aS'0474/0039.png'
p6677
aS'0474/0040.png'
p6678
aS'0474/0041.png'
p6679
aS'0474/0042.png'
p6680
aS'0474/0043.png'
p6681
aS'0474/0044.png'
p6682
aS'0474/0046.png'
p6683
aS'0474/0054.png'
p6684
aS'0474/0055.png'
p6685
aS'0474/0056.png'
p6686
aS'0474/0064.png'
p6687
aa(lp6688
S'0475/0001.png'
p6689
aS'0475/0010.png'
p6690
aS'0475/0011.png'
p6691
aS'0475/0018.png'
p6692
aS'0475/0019.png'
p6693
aS'0475/0020.png'
p6694
aS'0475/0021.png'
p6695
aS'0475/0022.png'
p6696
aS'0475/0023.png'
p6697
aS'0475/0024.png'
p6698
aS'0475/0025.png'
p6699
aS'0475/0026.png'
p6700
aS'0475/0027.png'
p6701
aS'0475/0028.png'
p6702
aS'0475/0029.png'
p6703
aS'0475/0030.png'
p6704
aS'0475/0040.png'
p6705
aS'0475/0041.png'
p6706
aS'0475/0042.png'
p6707
aa(lp6708
S'0476/0001.png'
p6709
aS'0476/0011.png'
p6710
aS'0476/0012.png'
p6711
aS'0476/0016.png'
p6712
aS'0476/0019.png'
p6713
aS'0476/0020.png'
p6714
aS'0476/0021.png'
p6715
aS'0476/0022.png'
p6716
aS'0476/0023.png'
p6717
aS'0476/0024.png'
p6718
aS'0476/0025.png'
p6719
aa(lp6720
S'0477/0001.png'
p6721
aS'0477/0009.png'
p6722
aS'0477/0010.png'
p6723
aS'0477/0013.png'
p6724
aS'0477/0015.png'
p6725
aS'0477/0017.png'
p6726
aS'0477/0019.png'
p6727
aS'0477/0022.png'
p6728
aS'0477/0025.png'
p6729
aS'0477/0026.png'
p6730
aS'0477/0033.png'
p6731
aa(lp6732
S'0478/0001.png'
p6733
aS'0478/0011.png'
p6734
aS'0478/0014.png'
p6735
aS'0478/0015.png'
p6736
aS'0478/0021.png'
p6737
aS'0478/0026.png'
p6738
aS'0478/0031.png'
p6739
aS'0478/0039.png'
p6740
aa(lp6741
S'0480/0001.png'
p6742
aS'0480/0006.png'
p6743
aS'0480/0011.png'
p6744
aS'0480/0016.png'
p6745
aS'0480/0021.png'
p6746
aS'0480/0026.png'
p6747
aS'0480/0031.png'
p6748
aS'0480/0036.png'
p6749
aS'0480/0041.png'
p6750
aS'0480/0046.png'
p6751
aS'0480/0051.png'
p6752
aS'0480/0056.png'
p6753
aS'0480/0061.png'
p6754
aa(lp6755
S'0481/0001.png'
p6756
aS'0481/0024.png'
p6757
aS'0481/0030.png'
p6758
aS'0481/0032.png'
p6759
aS'0481/0033.png'
p6760
aS'0481/0034.png'
p6761
aS'0481/0035.png'
p6762
aS'0481/0036.png'
p6763
aS'0481/0037.png'
p6764
aS'0481/0038.png'
p6765
aS'0481/0039.png'
p6766
aS'0481/0040.png'
p6767
aS'0481/0041.png'
p6768
aS'0481/0042.png'
p6769
aS'0481/0043.png'
p6770
aS'0481/0044.png'
p6771
aS'0481/0045.png'
p6772
aS'0481/0046.png'
p6773
aS'0481/0047.png'
p6774
aS'0481/0048.png'
p6775
aS'0481/0049.png'
p6776
aS'0481/0050.png'
p6777
aS'0481/0051.png'
p6778
aS'0481/0053.png'
p6779
aS'0481/0054.png'
p6780
aS'0481/0060.png'
p6781
aa(lp6782
S'0483/0011.png'
p6783
aS'0483/0012.png'
p6784
aS'0483/0024.png'
p6785
aS'0483/0028.png'
p6786
aS'0483/0033.png'
p6787
aa(lp6788
S'0484/0001.png'
p6789
aS'0484/0030.png'
p6790
aS'0484/0031.png'
p6791
aS'0484/0032.png'
p6792
aS'0484/0035.png'
p6793
aS'0484/0040.png'
p6794
aS'0484/0047.png'
p6795
aa.